
driver_CM7.elf:     file format elf32-littlearm

Sections:
Idx Name          Size      VMA       LMA       File off  Algn
  0 .isr_vector   00000298  08000000  08000000  00010000  2**0
                  CONTENTS, ALLOC, LOAD, READONLY, DATA
  1 .text         000012f4  08000298  08000298  00010298  2**2
                  CONTENTS, ALLOC, LOAD, READONLY, CODE
  2 .rodata       00000000  0800158c  08001594  00011594  2**0
                  CONTENTS, ALLOC, LOAD, DATA
  3 .ARM.extab    00000000  0800158c  0800158c  00011594  2**0
                  CONTENTS
  4 .ARM          00000000  0800158c  0800158c  00011594  2**0
                  CONTENTS
  5 .preinit_array 00000000  0800158c  08001594  00011594  2**0
                  CONTENTS, ALLOC, LOAD, DATA
  6 .init_array   00000004  0800158c  0800158c  0001158c  2**2
                  CONTENTS, ALLOC, LOAD, DATA
  7 .fini_array   00000004  08001590  08001590  00011590  2**2
                  CONTENTS, ALLOC, LOAD, DATA
  8 .data         00000000  24000000  24000000  00011594  2**0
                  CONTENTS, ALLOC, LOAD, DATA
  9 .bss          0000001c  24000000  08001594  00020000  2**2
                  ALLOC
 10 ._user_heap_stack 00000604  2400001c  08001594  0002001c  2**0
                  ALLOC
 11 .ARM.attributes 0000002e  00000000  00000000  00011594  2**0
                  CONTENTS, READONLY
 12 .debug_info   000018af  00000000  00000000  000115c2  2**0
                  CONTENTS, READONLY, DEBUGGING, OCTETS
 13 .debug_abbrev 00000686  00000000  00000000  00012e71  2**0
                  CONTENTS, READONLY, DEBUGGING, OCTETS
 14 .debug_aranges 00000208  00000000  00000000  000134f8  2**3
                  CONTENTS, READONLY, DEBUGGING, OCTETS
 15 .debug_ranges 000001b0  00000000  00000000  00013700  2**3
                  CONTENTS, READONLY, DEBUGGING, OCTETS
 16 .debug_macro  0002923f  00000000  00000000  000138b0  2**0
                  CONTENTS, READONLY, DEBUGGING, OCTETS
 17 .debug_line   000027be  00000000  00000000  0003caef  2**0
                  CONTENTS, READONLY, DEBUGGING, OCTETS
 18 .debug_str    000eb963  00000000  00000000  0003f2ad  2**0
                  CONTENTS, READONLY, DEBUGGING, OCTETS
 19 .comment      00000053  00000000  00000000  0012ac10  2**0
                  CONTENTS, READONLY
 20 .debug_frame  000006d0  00000000  00000000  0012ac64  2**2
                  CONTENTS, READONLY, DEBUGGING, OCTETS

Disassembly of section .text:

08000298 <__do_global_dtors_aux>:
 8000298:	b510      	push	{r4, lr}
 800029a:	4c05      	ldr	r4, [pc, #20]	; (80002b0 <__do_global_dtors_aux+0x18>)
 800029c:	7823      	ldrb	r3, [r4, #0]
 800029e:	b933      	cbnz	r3, 80002ae <__do_global_dtors_aux+0x16>
 80002a0:	4b04      	ldr	r3, [pc, #16]	; (80002b4 <__do_global_dtors_aux+0x1c>)
 80002a2:	b113      	cbz	r3, 80002aa <__do_global_dtors_aux+0x12>
 80002a4:	4804      	ldr	r0, [pc, #16]	; (80002b8 <__do_global_dtors_aux+0x20>)
 80002a6:	f3af 8000 	nop.w
 80002aa:	2301      	movs	r3, #1
 80002ac:	7023      	strb	r3, [r4, #0]
 80002ae:	bd10      	pop	{r4, pc}
 80002b0:	24000000 	.word	0x24000000
 80002b4:	00000000 	.word	0x00000000
 80002b8:	08001574 	.word	0x08001574

080002bc <frame_dummy>:
 80002bc:	b508      	push	{r3, lr}
 80002be:	4b03      	ldr	r3, [pc, #12]	; (80002cc <frame_dummy+0x10>)
 80002c0:	b11b      	cbz	r3, 80002ca <frame_dummy+0xe>
 80002c2:	4903      	ldr	r1, [pc, #12]	; (80002d0 <frame_dummy+0x14>)
 80002c4:	4803      	ldr	r0, [pc, #12]	; (80002d4 <frame_dummy+0x18>)
 80002c6:	f3af 8000 	nop.w
 80002ca:	bd08      	pop	{r3, pc}
 80002cc:	00000000 	.word	0x00000000
 80002d0:	24000004 	.word	0x24000004
 80002d4:	08001574 	.word	0x08001574

080002d8 <decimalToBinary>:

#define HSEON	(1U<<16) // HSE clock enable
#define HSERDY	(1U<<17) // HSE clock ready flag

long decimalToBinary(int decimalnum)
{
 80002d8:	b480      	push	{r7}
 80002da:	b087      	sub	sp, #28
 80002dc:	af00      	add	r7, sp, #0
 80002de:	6078      	str	r0, [r7, #4]
    long binarynum = 0;
 80002e0:	2300      	movs	r3, #0
 80002e2:	617b      	str	r3, [r7, #20]
    int rem, temp = 1;
 80002e4:	2301      	movs	r3, #1
 80002e6:	613b      	str	r3, [r7, #16]

    while (decimalnum!=0)
 80002e8:	e019      	b.n	800031e <decimalToBinary+0x46>
    {
        rem = decimalnum%2;
 80002ea:	687b      	ldr	r3, [r7, #4]
 80002ec:	2b00      	cmp	r3, #0
 80002ee:	f003 0301 	and.w	r3, r3, #1
 80002f2:	bfb8      	it	lt
 80002f4:	425b      	neglt	r3, r3
 80002f6:	60fb      	str	r3, [r7, #12]
        decimalnum = decimalnum / 2;
 80002f8:	687b      	ldr	r3, [r7, #4]
 80002fa:	2b00      	cmp	r3, #0
 80002fc:	da00      	bge.n	8000300 <decimalToBinary+0x28>
 80002fe:	3301      	adds	r3, #1
 8000300:	105b      	asrs	r3, r3, #1
 8000302:	607b      	str	r3, [r7, #4]
        binarynum = binarynum + rem*temp;
 8000304:	68fb      	ldr	r3, [r7, #12]
 8000306:	693a      	ldr	r2, [r7, #16]
 8000308:	fb02 f303 	mul.w	r3, r2, r3
 800030c:	697a      	ldr	r2, [r7, #20]
 800030e:	4413      	add	r3, r2
 8000310:	617b      	str	r3, [r7, #20]
        temp = temp * 10;
 8000312:	693a      	ldr	r2, [r7, #16]
 8000314:	4613      	mov	r3, r2
 8000316:	009b      	lsls	r3, r3, #2
 8000318:	4413      	add	r3, r2
 800031a:	005b      	lsls	r3, r3, #1
 800031c:	613b      	str	r3, [r7, #16]
    while (decimalnum!=0)
 800031e:	687b      	ldr	r3, [r7, #4]
 8000320:	2b00      	cmp	r3, #0
 8000322:	d1e2      	bne.n	80002ea <decimalToBinary+0x12>
    }
    return binarynum;
 8000324:	697b      	ldr	r3, [r7, #20]
}
 8000326:	4618      	mov	r0, r3
 8000328:	371c      	adds	r7, #28
 800032a:	46bd      	mov	sp, r7
 800032c:	f85d 7b04 	ldr.w	r7, [sp], #4
 8000330:	4770      	bx	lr
	...

08000334 <PLLSRC_Select>:
 * 2: HSE selected as PLL clock (hse_ck)
 * 3: No clock send to DIVMx divider and PLLs
 *
 */
void PLLSRC_Select(short select)
{
 8000334:	b480      	push	{r7}
 8000336:	b083      	sub	sp, #12
 8000338:	af00      	add	r7, sp, #0
 800033a:	4603      	mov	r3, r0
 800033c:	80fb      	strh	r3, [r7, #6]
	if(select== 0)
 800033e:	f9b7 3006 	ldrsh.w	r3, [r7, #6]
 8000342:	2b00      	cmp	r3, #0
 8000344:	d10c      	bne.n	8000360 <PLLSRC_Select+0x2c>
	{
		RCC->PLLCKSELR &= ~(1U<<0);
 8000346:	4b20      	ldr	r3, [pc, #128]	; (80003c8 <PLLSRC_Select+0x94>)
 8000348:	6a9b      	ldr	r3, [r3, #40]	; 0x28
 800034a:	4a1f      	ldr	r2, [pc, #124]	; (80003c8 <PLLSRC_Select+0x94>)
 800034c:	f023 0301 	bic.w	r3, r3, #1
 8000350:	6293      	str	r3, [r2, #40]	; 0x28
		RCC->PLLCKSELR &= ~(1U<<1);
 8000352:	4b1d      	ldr	r3, [pc, #116]	; (80003c8 <PLLSRC_Select+0x94>)
 8000354:	6a9b      	ldr	r3, [r3, #40]	; 0x28
 8000356:	4a1c      	ldr	r2, [pc, #112]	; (80003c8 <PLLSRC_Select+0x94>)
 8000358:	f023 0302 	bic.w	r3, r3, #2
 800035c:	6293      	str	r3, [r2, #40]	; 0x28
	}else
	{
		RCC->PLLCKSELR |=  (1U<<0);
		RCC->PLLCKSELR |=  (1U<<1);
	}
}
 800035e:	e02d      	b.n	80003bc <PLLSRC_Select+0x88>
	}else if(select ==1)
 8000360:	f9b7 3006 	ldrsh.w	r3, [r7, #6]
 8000364:	2b01      	cmp	r3, #1
 8000366:	d10c      	bne.n	8000382 <PLLSRC_Select+0x4e>
		RCC->PLLCKSELR |=  (1U<<0);
 8000368:	4b17      	ldr	r3, [pc, #92]	; (80003c8 <PLLSRC_Select+0x94>)
 800036a:	6a9b      	ldr	r3, [r3, #40]	; 0x28
 800036c:	4a16      	ldr	r2, [pc, #88]	; (80003c8 <PLLSRC_Select+0x94>)
 800036e:	f043 0301 	orr.w	r3, r3, #1
 8000372:	6293      	str	r3, [r2, #40]	; 0x28
		RCC->PLLCKSELR &= ~(1U<<1);
 8000374:	4b14      	ldr	r3, [pc, #80]	; (80003c8 <PLLSRC_Select+0x94>)
 8000376:	6a9b      	ldr	r3, [r3, #40]	; 0x28
 8000378:	4a13      	ldr	r2, [pc, #76]	; (80003c8 <PLLSRC_Select+0x94>)
 800037a:	f023 0302 	bic.w	r3, r3, #2
 800037e:	6293      	str	r3, [r2, #40]	; 0x28
}
 8000380:	e01c      	b.n	80003bc <PLLSRC_Select+0x88>
	}else if(select == 2)
 8000382:	f9b7 3006 	ldrsh.w	r3, [r7, #6]
 8000386:	2b02      	cmp	r3, #2
 8000388:	d10c      	bne.n	80003a4 <PLLSRC_Select+0x70>
		RCC->PLLCKSELR &= ~(1U<<0);
 800038a:	4b0f      	ldr	r3, [pc, #60]	; (80003c8 <PLLSRC_Select+0x94>)
 800038c:	6a9b      	ldr	r3, [r3, #40]	; 0x28
 800038e:	4a0e      	ldr	r2, [pc, #56]	; (80003c8 <PLLSRC_Select+0x94>)
 8000390:	f023 0301 	bic.w	r3, r3, #1
 8000394:	6293      	str	r3, [r2, #40]	; 0x28
		RCC->PLLCKSELR |=  (1U<<1);
 8000396:	4b0c      	ldr	r3, [pc, #48]	; (80003c8 <PLLSRC_Select+0x94>)
 8000398:	6a9b      	ldr	r3, [r3, #40]	; 0x28
 800039a:	4a0b      	ldr	r2, [pc, #44]	; (80003c8 <PLLSRC_Select+0x94>)
 800039c:	f043 0302 	orr.w	r3, r3, #2
 80003a0:	6293      	str	r3, [r2, #40]	; 0x28
}
 80003a2:	e00b      	b.n	80003bc <PLLSRC_Select+0x88>
		RCC->PLLCKSELR |=  (1U<<0);
 80003a4:	4b08      	ldr	r3, [pc, #32]	; (80003c8 <PLLSRC_Select+0x94>)
 80003a6:	6a9b      	ldr	r3, [r3, #40]	; 0x28
 80003a8:	4a07      	ldr	r2, [pc, #28]	; (80003c8 <PLLSRC_Select+0x94>)
 80003aa:	f043 0301 	orr.w	r3, r3, #1
 80003ae:	6293      	str	r3, [r2, #40]	; 0x28
		RCC->PLLCKSELR |=  (1U<<1);
 80003b0:	4b05      	ldr	r3, [pc, #20]	; (80003c8 <PLLSRC_Select+0x94>)
 80003b2:	6a9b      	ldr	r3, [r3, #40]	; 0x28
 80003b4:	4a04      	ldr	r2, [pc, #16]	; (80003c8 <PLLSRC_Select+0x94>)
 80003b6:	f043 0302 	orr.w	r3, r3, #2
 80003ba:	6293      	str	r3, [r2, #40]	; 0x28
}
 80003bc:	bf00      	nop
 80003be:	370c      	adds	r7, #12
 80003c0:	46bd      	mov	sp, r7
 80003c2:	f85d 7b04 	ldr.w	r7, [sp], #4
 80003c6:	4770      	bx	lr
 80003c8:	58024400 	.word	0x58024400

080003cc <DIVM1>:
 * 32: division by 32 (default after reset)
 * ...
 * 63: division by 63
 */
void DIVM1(short prescaler)
{
 80003cc:	b580      	push	{r7, lr}
 80003ce:	b086      	sub	sp, #24
 80003d0:	af00      	add	r7, sp, #0
 80003d2:	4603      	mov	r3, r0
 80003d4:	80fb      	strh	r3, [r7, #6]
	long temp = decimalToBinary(prescaler);
 80003d6:	f9b7 3006 	ldrsh.w	r3, [r7, #6]
 80003da:	4618      	mov	r0, r3
 80003dc:	f7ff ff7c 	bl	80002d8 <decimalToBinary>
 80003e0:	6178      	str	r0, [r7, #20]
	for(int i = 4 ; i<10; i++)
 80003e2:	2304      	movs	r3, #4
 80003e4:	613b      	str	r3, [r7, #16]
 80003e6:	e030      	b.n	800044a <DIVM1+0x7e>
	{
		short s =  ( temp % 10);
 80003e8:	697a      	ldr	r2, [r7, #20]
 80003ea:	4b1c      	ldr	r3, [pc, #112]	; (800045c <DIVM1+0x90>)
 80003ec:	fb83 1302 	smull	r1, r3, r3, r2
 80003f0:	1099      	asrs	r1, r3, #2
 80003f2:	17d3      	asrs	r3, r2, #31
 80003f4:	1ac9      	subs	r1, r1, r3
 80003f6:	460b      	mov	r3, r1
 80003f8:	009b      	lsls	r3, r3, #2
 80003fa:	440b      	add	r3, r1
 80003fc:	005b      	lsls	r3, r3, #1
 80003fe:	1ad1      	subs	r1, r2, r3
 8000400:	460b      	mov	r3, r1
 8000402:	81fb      	strh	r3, [r7, #14]
		if(s==1)
 8000404:	f9b7 300e 	ldrsh.w	r3, [r7, #14]
 8000408:	2b01      	cmp	r3, #1
 800040a:	d109      	bne.n	8000420 <DIVM1+0x54>
		{
			RCC->PLLCKSELR |= (1U<<i);
 800040c:	4b14      	ldr	r3, [pc, #80]	; (8000460 <DIVM1+0x94>)
 800040e:	6a9a      	ldr	r2, [r3, #40]	; 0x28
 8000410:	2101      	movs	r1, #1
 8000412:	693b      	ldr	r3, [r7, #16]
 8000414:	fa01 f303 	lsl.w	r3, r1, r3
 8000418:	4911      	ldr	r1, [pc, #68]	; (8000460 <DIVM1+0x94>)
 800041a:	4313      	orrs	r3, r2
 800041c:	628b      	str	r3, [r1, #40]	; 0x28
 800041e:	e009      	b.n	8000434 <DIVM1+0x68>
		}else
		{
			RCC->PLLCKSELR &= ~(1U<<i);
 8000420:	4b0f      	ldr	r3, [pc, #60]	; (8000460 <DIVM1+0x94>)
 8000422:	6a9a      	ldr	r2, [r3, #40]	; 0x28
 8000424:	2101      	movs	r1, #1
 8000426:	693b      	ldr	r3, [r7, #16]
 8000428:	fa01 f303 	lsl.w	r3, r1, r3
 800042c:	43db      	mvns	r3, r3
 800042e:	490c      	ldr	r1, [pc, #48]	; (8000460 <DIVM1+0x94>)
 8000430:	4013      	ands	r3, r2
 8000432:	628b      	str	r3, [r1, #40]	; 0x28
		}
		temp /= 10;
 8000434:	697b      	ldr	r3, [r7, #20]
 8000436:	4a09      	ldr	r2, [pc, #36]	; (800045c <DIVM1+0x90>)
 8000438:	fb82 1203 	smull	r1, r2, r2, r3
 800043c:	1092      	asrs	r2, r2, #2
 800043e:	17db      	asrs	r3, r3, #31
 8000440:	1ad3      	subs	r3, r2, r3
 8000442:	617b      	str	r3, [r7, #20]
	for(int i = 4 ; i<10; i++)
 8000444:	693b      	ldr	r3, [r7, #16]
 8000446:	3301      	adds	r3, #1
 8000448:	613b      	str	r3, [r7, #16]
 800044a:	693b      	ldr	r3, [r7, #16]
 800044c:	2b09      	cmp	r3, #9
 800044e:	ddcb      	ble.n	80003e8 <DIVM1+0x1c>
	}

}
 8000450:	bf00      	nop
 8000452:	bf00      	nop
 8000454:	3718      	adds	r7, #24
 8000456:	46bd      	mov	sp, r7
 8000458:	bd80      	pop	{r7, pc}
 800045a:	bf00      	nop
 800045c:	66666667 	.word	0x66666667
 8000460:	58024400 	.word	0x58024400

08000464 <PLL1DIVR>:
 * 3: pll1_q_ck = vco1_ck / 4
 * ...
 * 127: pll1_q_ck = vco1_ck / 128
 */
void PLL1DIVR(uint8_t DIVN1, short DIVP1, short DIVQ1, short DIVR1)
{
 8000464:	b590      	push	{r4, r7, lr}
 8000466:	b089      	sub	sp, #36	; 0x24
 8000468:	af00      	add	r7, sp, #0
 800046a:	4604      	mov	r4, r0
 800046c:	4608      	mov	r0, r1
 800046e:	4611      	mov	r1, r2
 8000470:	461a      	mov	r2, r3
 8000472:	4623      	mov	r3, r4
 8000474:	71fb      	strb	r3, [r7, #7]
 8000476:	4603      	mov	r3, r0
 8000478:	80bb      	strh	r3, [r7, #4]
 800047a:	460b      	mov	r3, r1
 800047c:	807b      	strh	r3, [r7, #2]
 800047e:	4613      	mov	r3, r2
 8000480:	803b      	strh	r3, [r7, #0]
	if(DIVN1<=0x1FF && DIVN1>=0x000){
	RCC->PLL1DIVR  = DIVN1  ;
 8000482:	4a5f      	ldr	r2, [pc, #380]	; (8000600 <PLL1DIVR+0x19c>)
 8000484:	79fb      	ldrb	r3, [r7, #7]
 8000486:	6313      	str	r3, [r2, #48]	; 0x30
	long temp = decimalToBinary(DIVP1);
 8000488:	f9b7 3004 	ldrsh.w	r3, [r7, #4]
 800048c:	4618      	mov	r0, r3
 800048e:	f7ff ff23 	bl	80002d8 <decimalToBinary>
 8000492:	61f8      	str	r0, [r7, #28]
		for(int i = 9 ; i<16; i++)
 8000494:	2309      	movs	r3, #9
 8000496:	61bb      	str	r3, [r7, #24]
 8000498:	e030      	b.n	80004fc <PLL1DIVR+0x98>
		{
			short s =  ( temp % 10);
 800049a:	69fa      	ldr	r2, [r7, #28]
 800049c:	4b59      	ldr	r3, [pc, #356]	; (8000604 <PLL1DIVR+0x1a0>)
 800049e:	fb83 1302 	smull	r1, r3, r3, r2
 80004a2:	1099      	asrs	r1, r3, #2
 80004a4:	17d3      	asrs	r3, r2, #31
 80004a6:	1ac9      	subs	r1, r1, r3
 80004a8:	460b      	mov	r3, r1
 80004aa:	009b      	lsls	r3, r3, #2
 80004ac:	440b      	add	r3, r1
 80004ae:	005b      	lsls	r3, r3, #1
 80004b0:	1ad1      	subs	r1, r2, r3
 80004b2:	460b      	mov	r3, r1
 80004b4:	817b      	strh	r3, [r7, #10]
			if(s==1)
 80004b6:	f9b7 300a 	ldrsh.w	r3, [r7, #10]
 80004ba:	2b01      	cmp	r3, #1
 80004bc:	d109      	bne.n	80004d2 <PLL1DIVR+0x6e>
			{
				RCC->PLL1DIVR |= (1U<<i);
 80004be:	4b50      	ldr	r3, [pc, #320]	; (8000600 <PLL1DIVR+0x19c>)
 80004c0:	6b1a      	ldr	r2, [r3, #48]	; 0x30
 80004c2:	2101      	movs	r1, #1
 80004c4:	69bb      	ldr	r3, [r7, #24]
 80004c6:	fa01 f303 	lsl.w	r3, r1, r3
 80004ca:	494d      	ldr	r1, [pc, #308]	; (8000600 <PLL1DIVR+0x19c>)
 80004cc:	4313      	orrs	r3, r2
 80004ce:	630b      	str	r3, [r1, #48]	; 0x30
 80004d0:	e009      	b.n	80004e6 <PLL1DIVR+0x82>
			}else
			{
				RCC->PLL1DIVR &= ~(1U<<i);
 80004d2:	4b4b      	ldr	r3, [pc, #300]	; (8000600 <PLL1DIVR+0x19c>)
 80004d4:	6b1a      	ldr	r2, [r3, #48]	; 0x30
 80004d6:	2101      	movs	r1, #1
 80004d8:	69bb      	ldr	r3, [r7, #24]
 80004da:	fa01 f303 	lsl.w	r3, r1, r3
 80004de:	43db      	mvns	r3, r3
 80004e0:	4947      	ldr	r1, [pc, #284]	; (8000600 <PLL1DIVR+0x19c>)
 80004e2:	4013      	ands	r3, r2
 80004e4:	630b      	str	r3, [r1, #48]	; 0x30
			}
			temp /= 10;
 80004e6:	69fb      	ldr	r3, [r7, #28]
 80004e8:	4a46      	ldr	r2, [pc, #280]	; (8000604 <PLL1DIVR+0x1a0>)
 80004ea:	fb82 1203 	smull	r1, r2, r2, r3
 80004ee:	1092      	asrs	r2, r2, #2
 80004f0:	17db      	asrs	r3, r3, #31
 80004f2:	1ad3      	subs	r3, r2, r3
 80004f4:	61fb      	str	r3, [r7, #28]
		for(int i = 9 ; i<16; i++)
 80004f6:	69bb      	ldr	r3, [r7, #24]
 80004f8:	3301      	adds	r3, #1
 80004fa:	61bb      	str	r3, [r7, #24]
 80004fc:	69bb      	ldr	r3, [r7, #24]
 80004fe:	2b0f      	cmp	r3, #15
 8000500:	ddcb      	ble.n	800049a <PLL1DIVR+0x36>
		}
	temp = decimalToBinary(DIVQ1);
 8000502:	f9b7 3002 	ldrsh.w	r3, [r7, #2]
 8000506:	4618      	mov	r0, r3
 8000508:	f7ff fee6 	bl	80002d8 <decimalToBinary>
 800050c:	61f8      	str	r0, [r7, #28]
		for(int i = 16; i<23; i++)
 800050e:	2310      	movs	r3, #16
 8000510:	617b      	str	r3, [r7, #20]
 8000512:	e030      	b.n	8000576 <PLL1DIVR+0x112>
		{
			short s =  ( temp % 10);
 8000514:	69fa      	ldr	r2, [r7, #28]
 8000516:	4b3b      	ldr	r3, [pc, #236]	; (8000604 <PLL1DIVR+0x1a0>)
 8000518:	fb83 1302 	smull	r1, r3, r3, r2
 800051c:	1099      	asrs	r1, r3, #2
 800051e:	17d3      	asrs	r3, r2, #31
 8000520:	1ac9      	subs	r1, r1, r3
 8000522:	460b      	mov	r3, r1
 8000524:	009b      	lsls	r3, r3, #2
 8000526:	440b      	add	r3, r1
 8000528:	005b      	lsls	r3, r3, #1
 800052a:	1ad1      	subs	r1, r2, r3
 800052c:	460b      	mov	r3, r1
 800052e:	81bb      	strh	r3, [r7, #12]
			if(s==1)
 8000530:	f9b7 300c 	ldrsh.w	r3, [r7, #12]
 8000534:	2b01      	cmp	r3, #1
 8000536:	d109      	bne.n	800054c <PLL1DIVR+0xe8>
			{
				RCC->PLL1DIVR |= (1U<<i);
 8000538:	4b31      	ldr	r3, [pc, #196]	; (8000600 <PLL1DIVR+0x19c>)
 800053a:	6b1a      	ldr	r2, [r3, #48]	; 0x30
 800053c:	2101      	movs	r1, #1
 800053e:	697b      	ldr	r3, [r7, #20]
 8000540:	fa01 f303 	lsl.w	r3, r1, r3
 8000544:	492e      	ldr	r1, [pc, #184]	; (8000600 <PLL1DIVR+0x19c>)
 8000546:	4313      	orrs	r3, r2
 8000548:	630b      	str	r3, [r1, #48]	; 0x30
 800054a:	e009      	b.n	8000560 <PLL1DIVR+0xfc>
			}else
			{
				RCC->PLL1DIVR &= ~(1U<<i);
 800054c:	4b2c      	ldr	r3, [pc, #176]	; (8000600 <PLL1DIVR+0x19c>)
 800054e:	6b1a      	ldr	r2, [r3, #48]	; 0x30
 8000550:	2101      	movs	r1, #1
 8000552:	697b      	ldr	r3, [r7, #20]
 8000554:	fa01 f303 	lsl.w	r3, r1, r3
 8000558:	43db      	mvns	r3, r3
 800055a:	4929      	ldr	r1, [pc, #164]	; (8000600 <PLL1DIVR+0x19c>)
 800055c:	4013      	ands	r3, r2
 800055e:	630b      	str	r3, [r1, #48]	; 0x30
			}
			temp /= 10;
 8000560:	69fb      	ldr	r3, [r7, #28]
 8000562:	4a28      	ldr	r2, [pc, #160]	; (8000604 <PLL1DIVR+0x1a0>)
 8000564:	fb82 1203 	smull	r1, r2, r2, r3
 8000568:	1092      	asrs	r2, r2, #2
 800056a:	17db      	asrs	r3, r3, #31
 800056c:	1ad3      	subs	r3, r2, r3
 800056e:	61fb      	str	r3, [r7, #28]
		for(int i = 16; i<23; i++)
 8000570:	697b      	ldr	r3, [r7, #20]
 8000572:	3301      	adds	r3, #1
 8000574:	617b      	str	r3, [r7, #20]
 8000576:	697b      	ldr	r3, [r7, #20]
 8000578:	2b16      	cmp	r3, #22
 800057a:	ddcb      	ble.n	8000514 <PLL1DIVR+0xb0>
		}
	temp = decimalToBinary(DIVR1);
 800057c:	f9b7 3000 	ldrsh.w	r3, [r7]
 8000580:	4618      	mov	r0, r3
 8000582:	f7ff fea9 	bl	80002d8 <decimalToBinary>
 8000586:	61f8      	str	r0, [r7, #28]
		for(int i =24 ; i<31; i++)
 8000588:	2318      	movs	r3, #24
 800058a:	613b      	str	r3, [r7, #16]
 800058c:	e030      	b.n	80005f0 <PLL1DIVR+0x18c>
		{
			short s =  ( temp % 10);
 800058e:	69fa      	ldr	r2, [r7, #28]
 8000590:	4b1c      	ldr	r3, [pc, #112]	; (8000604 <PLL1DIVR+0x1a0>)
 8000592:	fb83 1302 	smull	r1, r3, r3, r2
 8000596:	1099      	asrs	r1, r3, #2
 8000598:	17d3      	asrs	r3, r2, #31
 800059a:	1ac9      	subs	r1, r1, r3
 800059c:	460b      	mov	r3, r1
 800059e:	009b      	lsls	r3, r3, #2
 80005a0:	440b      	add	r3, r1
 80005a2:	005b      	lsls	r3, r3, #1
 80005a4:	1ad1      	subs	r1, r2, r3
 80005a6:	460b      	mov	r3, r1
 80005a8:	81fb      	strh	r3, [r7, #14]
			if(s==1)
 80005aa:	f9b7 300e 	ldrsh.w	r3, [r7, #14]
 80005ae:	2b01      	cmp	r3, #1
 80005b0:	d109      	bne.n	80005c6 <PLL1DIVR+0x162>
			{
				RCC->PLL1DIVR |= (1U<<i);
 80005b2:	4b13      	ldr	r3, [pc, #76]	; (8000600 <PLL1DIVR+0x19c>)
 80005b4:	6b1a      	ldr	r2, [r3, #48]	; 0x30
 80005b6:	2101      	movs	r1, #1
 80005b8:	693b      	ldr	r3, [r7, #16]
 80005ba:	fa01 f303 	lsl.w	r3, r1, r3
 80005be:	4910      	ldr	r1, [pc, #64]	; (8000600 <PLL1DIVR+0x19c>)
 80005c0:	4313      	orrs	r3, r2
 80005c2:	630b      	str	r3, [r1, #48]	; 0x30
 80005c4:	e009      	b.n	80005da <PLL1DIVR+0x176>
			}else
			{
				RCC->PLL1DIVR &= ~(1U<<i);
 80005c6:	4b0e      	ldr	r3, [pc, #56]	; (8000600 <PLL1DIVR+0x19c>)
 80005c8:	6b1a      	ldr	r2, [r3, #48]	; 0x30
 80005ca:	2101      	movs	r1, #1
 80005cc:	693b      	ldr	r3, [r7, #16]
 80005ce:	fa01 f303 	lsl.w	r3, r1, r3
 80005d2:	43db      	mvns	r3, r3
 80005d4:	490a      	ldr	r1, [pc, #40]	; (8000600 <PLL1DIVR+0x19c>)
 80005d6:	4013      	ands	r3, r2
 80005d8:	630b      	str	r3, [r1, #48]	; 0x30
			}
			temp /= 10;
 80005da:	69fb      	ldr	r3, [r7, #28]
 80005dc:	4a09      	ldr	r2, [pc, #36]	; (8000604 <PLL1DIVR+0x1a0>)
 80005de:	fb82 1203 	smull	r1, r2, r2, r3
 80005e2:	1092      	asrs	r2, r2, #2
 80005e4:	17db      	asrs	r3, r3, #31
 80005e6:	1ad3      	subs	r3, r2, r3
 80005e8:	61fb      	str	r3, [r7, #28]
		for(int i =24 ; i<31; i++)
 80005ea:	693b      	ldr	r3, [r7, #16]
 80005ec:	3301      	adds	r3, #1
 80005ee:	613b      	str	r3, [r7, #16]
 80005f0:	693b      	ldr	r3, [r7, #16]
 80005f2:	2b1e      	cmp	r3, #30
 80005f4:	ddcb      	ble.n	800058e <PLL1DIVR+0x12a>
	{
		//Wrong Configuration
		while(1);
	}

}
 80005f6:	bf00      	nop
 80005f8:	bf00      	nop
 80005fa:	3724      	adds	r7, #36	; 0x24
 80005fc:	46bd      	mov	sp, r7
 80005fe:	bd90      	pop	{r4, r7, pc}
 8000600:	58024400 	.word	0x58024400
 8000604:	66666667 	.word	0x66666667

08000608 <input_frequency_range>:
 *  1: The PLL1 input (ref1_ck) clock range frequency is between 2 and 4 MHz
 *  2: The PLL1 input (ref1_ck) clock range frequency is between 4 and 8 MHz
 *  3: The PLL1 input (ref1_ck) clock range frequency is between 8 and 16 MHz
 */
void input_frequency_range (short PLL1RGE)
{
 8000608:	b480      	push	{r7}
 800060a:	b083      	sub	sp, #12
 800060c:	af00      	add	r7, sp, #0
 800060e:	4603      	mov	r3, r0
 8000610:	80fb      	strh	r3, [r7, #6]
	switch(PLL1RGE)
 8000612:	f9b7 3006 	ldrsh.w	r3, [r7, #6]
 8000616:	2b03      	cmp	r3, #3
 8000618:	d83d      	bhi.n	8000696 <input_frequency_range+0x8e>
 800061a:	a201      	add	r2, pc, #4	; (adr r2, 8000620 <input_frequency_range+0x18>)
 800061c:	f852 f023 	ldr.w	pc, [r2, r3, lsl #2]
 8000620:	08000631 	.word	0x08000631
 8000624:	0800064b 	.word	0x0800064b
 8000628:	08000665 	.word	0x08000665
 800062c:	0800067f 	.word	0x0800067f
	{
	case 0 :
		RCC->PLLCFGR &= ~(1U<<2);
 8000630:	4b22      	ldr	r3, [pc, #136]	; (80006bc <input_frequency_range+0xb4>)
 8000632:	6adb      	ldr	r3, [r3, #44]	; 0x2c
 8000634:	4a21      	ldr	r2, [pc, #132]	; (80006bc <input_frequency_range+0xb4>)
 8000636:	f023 0304 	bic.w	r3, r3, #4
 800063a:	62d3      	str	r3, [r2, #44]	; 0x2c
		RCC->PLLCFGR &= ~(1U<<3);
 800063c:	4b1f      	ldr	r3, [pc, #124]	; (80006bc <input_frequency_range+0xb4>)
 800063e:	6adb      	ldr	r3, [r3, #44]	; 0x2c
 8000640:	4a1e      	ldr	r2, [pc, #120]	; (80006bc <input_frequency_range+0xb4>)
 8000642:	f023 0308 	bic.w	r3, r3, #8
 8000646:	62d3      	str	r3, [r2, #44]	; 0x2c
		break ;
 8000648:	e032      	b.n	80006b0 <input_frequency_range+0xa8>
	case 1 :
		RCC->PLLCFGR |= (1U<<2);
 800064a:	4b1c      	ldr	r3, [pc, #112]	; (80006bc <input_frequency_range+0xb4>)
 800064c:	6adb      	ldr	r3, [r3, #44]	; 0x2c
 800064e:	4a1b      	ldr	r2, [pc, #108]	; (80006bc <input_frequency_range+0xb4>)
 8000650:	f043 0304 	orr.w	r3, r3, #4
 8000654:	62d3      	str	r3, [r2, #44]	; 0x2c
		RCC->PLLCFGR &= ~(1U<<3);
 8000656:	4b19      	ldr	r3, [pc, #100]	; (80006bc <input_frequency_range+0xb4>)
 8000658:	6adb      	ldr	r3, [r3, #44]	; 0x2c
 800065a:	4a18      	ldr	r2, [pc, #96]	; (80006bc <input_frequency_range+0xb4>)
 800065c:	f023 0308 	bic.w	r3, r3, #8
 8000660:	62d3      	str	r3, [r2, #44]	; 0x2c
		break;
 8000662:	e025      	b.n	80006b0 <input_frequency_range+0xa8>
	case 2 :
		RCC->PLLCFGR |= (1U<<3);
 8000664:	4b15      	ldr	r3, [pc, #84]	; (80006bc <input_frequency_range+0xb4>)
 8000666:	6adb      	ldr	r3, [r3, #44]	; 0x2c
 8000668:	4a14      	ldr	r2, [pc, #80]	; (80006bc <input_frequency_range+0xb4>)
 800066a:	f043 0308 	orr.w	r3, r3, #8
 800066e:	62d3      	str	r3, [r2, #44]	; 0x2c
		RCC->PLLCFGR &= ~(1U<<2);
 8000670:	4b12      	ldr	r3, [pc, #72]	; (80006bc <input_frequency_range+0xb4>)
 8000672:	6adb      	ldr	r3, [r3, #44]	; 0x2c
 8000674:	4a11      	ldr	r2, [pc, #68]	; (80006bc <input_frequency_range+0xb4>)
 8000676:	f023 0304 	bic.w	r3, r3, #4
 800067a:	62d3      	str	r3, [r2, #44]	; 0x2c
		break;
 800067c:	e018      	b.n	80006b0 <input_frequency_range+0xa8>
	case 3 :
		RCC->PLLCFGR |= (1U<<3);
 800067e:	4b0f      	ldr	r3, [pc, #60]	; (80006bc <input_frequency_range+0xb4>)
 8000680:	6adb      	ldr	r3, [r3, #44]	; 0x2c
 8000682:	4a0e      	ldr	r2, [pc, #56]	; (80006bc <input_frequency_range+0xb4>)
 8000684:	f043 0308 	orr.w	r3, r3, #8
 8000688:	62d3      	str	r3, [r2, #44]	; 0x2c
		RCC->PLLCFGR |= (1U<<2);
 800068a:	4b0c      	ldr	r3, [pc, #48]	; (80006bc <input_frequency_range+0xb4>)
 800068c:	6adb      	ldr	r3, [r3, #44]	; 0x2c
 800068e:	4a0b      	ldr	r2, [pc, #44]	; (80006bc <input_frequency_range+0xb4>)
 8000690:	f043 0304 	orr.w	r3, r3, #4
 8000694:	62d3      	str	r3, [r2, #44]	; 0x2c
	default:
		RCC->PLLCFGR &= ~(1U<<2);
 8000696:	4b09      	ldr	r3, [pc, #36]	; (80006bc <input_frequency_range+0xb4>)
 8000698:	6adb      	ldr	r3, [r3, #44]	; 0x2c
 800069a:	4a08      	ldr	r2, [pc, #32]	; (80006bc <input_frequency_range+0xb4>)
 800069c:	f023 0304 	bic.w	r3, r3, #4
 80006a0:	62d3      	str	r3, [r2, #44]	; 0x2c
		RCC->PLLCFGR &= ~(1U<<3);
 80006a2:	4b06      	ldr	r3, [pc, #24]	; (80006bc <input_frequency_range+0xb4>)
 80006a4:	6adb      	ldr	r3, [r3, #44]	; 0x2c
 80006a6:	4a05      	ldr	r2, [pc, #20]	; (80006bc <input_frequency_range+0xb4>)
 80006a8:	f023 0308 	bic.w	r3, r3, #8
 80006ac:	62d3      	str	r3, [r2, #44]	; 0x2c
	}
}
 80006ae:	bf00      	nop
 80006b0:	bf00      	nop
 80006b2:	370c      	adds	r7, #12
 80006b4:	46bd      	mov	sp, r7
 80006b6:	f85d 7b04 	ldr.w	r7, [sp], #4
 80006ba:	4770      	bx	lr
 80006bc:	58024400 	.word	0x58024400

080006c0 <PLL1VCOSEL>:
 * These bits must be written before enabling the PLL1.
 * 0: Wide VCO range: 192 to 836 MHz (default after reset)
 * 1: Medium VCO range: 150 to 420 MHz
 */
void PLL1VCOSEL(bool wideOrMedium)
{
 80006c0:	b480      	push	{r7}
 80006c2:	b083      	sub	sp, #12
 80006c4:	af00      	add	r7, sp, #0
 80006c6:	4603      	mov	r3, r0
 80006c8:	71fb      	strb	r3, [r7, #7]
	if(wideOrMedium)
 80006ca:	79fb      	ldrb	r3, [r7, #7]
 80006cc:	2b00      	cmp	r3, #0
 80006ce:	d006      	beq.n	80006de <PLL1VCOSEL+0x1e>
	{
		RCC->PLLCFGR |= (1U<<1);
 80006d0:	4b09      	ldr	r3, [pc, #36]	; (80006f8 <PLL1VCOSEL+0x38>)
 80006d2:	6adb      	ldr	r3, [r3, #44]	; 0x2c
 80006d4:	4a08      	ldr	r2, [pc, #32]	; (80006f8 <PLL1VCOSEL+0x38>)
 80006d6:	f043 0302 	orr.w	r3, r3, #2
 80006da:	62d3      	str	r3, [r2, #44]	; 0x2c
	}else
	{
		RCC->PLLCFGR &= ~(1U<<1);
	}
}
 80006dc:	e005      	b.n	80006ea <PLL1VCOSEL+0x2a>
		RCC->PLLCFGR &= ~(1U<<1);
 80006de:	4b06      	ldr	r3, [pc, #24]	; (80006f8 <PLL1VCOSEL+0x38>)
 80006e0:	6adb      	ldr	r3, [r3, #44]	; 0x2c
 80006e2:	4a05      	ldr	r2, [pc, #20]	; (80006f8 <PLL1VCOSEL+0x38>)
 80006e4:	f023 0302 	bic.w	r3, r3, #2
 80006e8:	62d3      	str	r3, [r2, #44]	; 0x2c
}
 80006ea:	bf00      	nop
 80006ec:	370c      	adds	r7, #12
 80006ee:	46bd      	mov	sp, r7
 80006f0:	f85d 7b04 	ldr.w	r7, [sp], #4
 80006f4:	4770      	bx	lr
 80006f6:	bf00      	nop
 80006f8:	58024400 	.word	0x58024400

080006fc <enable_PLL1_OutputDividers>:
void enable_PLL1_OutputDividers(void)
{
 80006fc:	b480      	push	{r7}
 80006fe:	af00      	add	r7, sp, #0
	RCC ->PLLCFGR |= (1U<<16) ;
 8000700:	4b0b      	ldr	r3, [pc, #44]	; (8000730 <enable_PLL1_OutputDividers+0x34>)
 8000702:	6adb      	ldr	r3, [r3, #44]	; 0x2c
 8000704:	4a0a      	ldr	r2, [pc, #40]	; (8000730 <enable_PLL1_OutputDividers+0x34>)
 8000706:	f443 3380 	orr.w	r3, r3, #65536	; 0x10000
 800070a:	62d3      	str	r3, [r2, #44]	; 0x2c
	RCC ->PLLCFGR |= (1U<<17) ;
 800070c:	4b08      	ldr	r3, [pc, #32]	; (8000730 <enable_PLL1_OutputDividers+0x34>)
 800070e:	6adb      	ldr	r3, [r3, #44]	; 0x2c
 8000710:	4a07      	ldr	r2, [pc, #28]	; (8000730 <enable_PLL1_OutputDividers+0x34>)
 8000712:	f443 3300 	orr.w	r3, r3, #131072	; 0x20000
 8000716:	62d3      	str	r3, [r2, #44]	; 0x2c
	RCC ->PLLCFGR |= (1U<<18) ;
 8000718:	4b05      	ldr	r3, [pc, #20]	; (8000730 <enable_PLL1_OutputDividers+0x34>)
 800071a:	6adb      	ldr	r3, [r3, #44]	; 0x2c
 800071c:	4a04      	ldr	r2, [pc, #16]	; (8000730 <enable_PLL1_OutputDividers+0x34>)
 800071e:	f443 2380 	orr.w	r3, r3, #262144	; 0x40000
 8000722:	62d3      	str	r3, [r2, #44]	; 0x2c
}
 8000724:	bf00      	nop
 8000726:	46bd      	mov	sp, r7
 8000728:	f85d 7b04 	ldr.w	r7, [sp], #4
 800072c:	4770      	bx	lr
 800072e:	bf00      	nop
 8000730:	58024400 	.word	0x58024400

08000734 <enable_PLL1_FractionalDivider>:
void enable_PLL1_FractionalDivider(void)
{
 8000734:	b480      	push	{r7}
 8000736:	af00      	add	r7, sp, #0
	RCC ->PLLCFGR |= (1U<<0) ;
 8000738:	4b05      	ldr	r3, [pc, #20]	; (8000750 <enable_PLL1_FractionalDivider+0x1c>)
 800073a:	6adb      	ldr	r3, [r3, #44]	; 0x2c
 800073c:	4a04      	ldr	r2, [pc, #16]	; (8000750 <enable_PLL1_FractionalDivider+0x1c>)
 800073e:	f043 0301 	orr.w	r3, r3, #1
 8000742:	62d3      	str	r3, [r2, #44]	; 0x2c
}
 8000744:	bf00      	nop
 8000746:	46bd      	mov	sp, r7
 8000748:	f85d 7b04 	ldr.w	r7, [sp], #4
 800074c:	4770      	bx	lr
 800074e:	bf00      	nop
 8000750:	58024400 	.word	0x58024400

08000754 <StartPLL1>:
void StartPLL1(void)
{
 8000754:	b480      	push	{r7}
 8000756:	af00      	add	r7, sp, #0
	RCC->CR |= (1U<<24); //Start PLL1
 8000758:	4b09      	ldr	r3, [pc, #36]	; (8000780 <StartPLL1+0x2c>)
 800075a:	681b      	ldr	r3, [r3, #0]
 800075c:	4a08      	ldr	r2, [pc, #32]	; (8000780 <StartPLL1+0x2c>)
 800075e:	f043 7380 	orr.w	r3, r3, #16777216	; 0x1000000
 8000762:	6013      	str	r3, [r2, #0]
	while (!(RCC->CR &(1U<<25))); //Wait until ON
 8000764:	bf00      	nop
 8000766:	4b06      	ldr	r3, [pc, #24]	; (8000780 <StartPLL1+0x2c>)
 8000768:	681b      	ldr	r3, [r3, #0]
 800076a:	f003 7300 	and.w	r3, r3, #33554432	; 0x2000000
 800076e:	2b00      	cmp	r3, #0
 8000770:	d0f9      	beq.n	8000766 <StartPLL1+0x12>
}
 8000772:	bf00      	nop
 8000774:	bf00      	nop
 8000776:	46bd      	mov	sp, r7
 8000778:	f85d 7b04 	ldr.w	r7, [sp], #4
 800077c:	4770      	bx	lr
 800077e:	bf00      	nop
 8000780:	58024400 	.word	0x58024400

08000784 <D1CFGR_D1CPRE>:
 * 6: sys_ck divided by 128
 * 7: sys_ck divided by 256
 * 8: sys_ck divided by 512
 */
void D1CFGR_D1CPRE(short D1CPRE)
{
 8000784:	b480      	push	{r7}
 8000786:	b083      	sub	sp, #12
 8000788:	af00      	add	r7, sp, #0
 800078a:	4603      	mov	r3, r0
 800078c:	80fb      	strh	r3, [r7, #6]
	switch(D1CPRE)
 800078e:	f9b7 3006 	ldrsh.w	r3, [r7, #6]
 8000792:	2b08      	cmp	r3, #8
 8000794:	f200 80f7 	bhi.w	8000986 <D1CFGR_D1CPRE+0x202>
 8000798:	a201      	add	r2, pc, #4	; (adr r2, 80007a0 <D1CFGR_D1CPRE+0x1c>)
 800079a:	f852 f023 	ldr.w	pc, [r2, r3, lsl #2]
 800079e:	bf00      	nop
 80007a0:	080007c5 	.word	0x080007c5
 80007a4:	080007f7 	.word	0x080007f7
 80007a8:	08000829 	.word	0x08000829
 80007ac:	0800085b 	.word	0x0800085b
 80007b0:	0800088d 	.word	0x0800088d
 80007b4:	080008bf 	.word	0x080008bf
 80007b8:	080008f1 	.word	0x080008f1
 80007bc:	08000923 	.word	0x08000923
 80007c0:	08000955 	.word	0x08000955
	{
	case 0 :
		RCC->D1CFGR &= ~(1U<<8);
 80007c4:	4b7f      	ldr	r3, [pc, #508]	; (80009c4 <D1CFGR_D1CPRE+0x240>)
 80007c6:	699b      	ldr	r3, [r3, #24]
 80007c8:	4a7e      	ldr	r2, [pc, #504]	; (80009c4 <D1CFGR_D1CPRE+0x240>)
 80007ca:	f423 7380 	bic.w	r3, r3, #256	; 0x100
 80007ce:	6193      	str	r3, [r2, #24]
		RCC->D1CFGR &= ~(1U<<9);
 80007d0:	4b7c      	ldr	r3, [pc, #496]	; (80009c4 <D1CFGR_D1CPRE+0x240>)
 80007d2:	699b      	ldr	r3, [r3, #24]
 80007d4:	4a7b      	ldr	r2, [pc, #492]	; (80009c4 <D1CFGR_D1CPRE+0x240>)
 80007d6:	f423 7300 	bic.w	r3, r3, #512	; 0x200
 80007da:	6193      	str	r3, [r2, #24]
		RCC->D1CFGR &= ~(1U<<10);
 80007dc:	4b79      	ldr	r3, [pc, #484]	; (80009c4 <D1CFGR_D1CPRE+0x240>)
 80007de:	699b      	ldr	r3, [r3, #24]
 80007e0:	4a78      	ldr	r2, [pc, #480]	; (80009c4 <D1CFGR_D1CPRE+0x240>)
 80007e2:	f423 6380 	bic.w	r3, r3, #1024	; 0x400
 80007e6:	6193      	str	r3, [r2, #24]
		RCC->D1CFGR &= ~(1U<<11);
 80007e8:	4b76      	ldr	r3, [pc, #472]	; (80009c4 <D1CFGR_D1CPRE+0x240>)
 80007ea:	699b      	ldr	r3, [r3, #24]
 80007ec:	4a75      	ldr	r2, [pc, #468]	; (80009c4 <D1CFGR_D1CPRE+0x240>)
 80007ee:	f423 6300 	bic.w	r3, r3, #2048	; 0x800
 80007f2:	6193      	str	r3, [r2, #24]
		break;
 80007f4:	e0e0      	b.n	80009b8 <D1CFGR_D1CPRE+0x234>
	case 1 :
		RCC->D1CFGR &= ~(1U<<8);
 80007f6:	4b73      	ldr	r3, [pc, #460]	; (80009c4 <D1CFGR_D1CPRE+0x240>)
 80007f8:	699b      	ldr	r3, [r3, #24]
 80007fa:	4a72      	ldr	r2, [pc, #456]	; (80009c4 <D1CFGR_D1CPRE+0x240>)
 80007fc:	f423 7380 	bic.w	r3, r3, #256	; 0x100
 8000800:	6193      	str	r3, [r2, #24]
		RCC->D1CFGR &= ~(1U<<9);
 8000802:	4b70      	ldr	r3, [pc, #448]	; (80009c4 <D1CFGR_D1CPRE+0x240>)
 8000804:	699b      	ldr	r3, [r3, #24]
 8000806:	4a6f      	ldr	r2, [pc, #444]	; (80009c4 <D1CFGR_D1CPRE+0x240>)
 8000808:	f423 7300 	bic.w	r3, r3, #512	; 0x200
 800080c:	6193      	str	r3, [r2, #24]
		RCC->D1CFGR &= ~(1U<<10);
 800080e:	4b6d      	ldr	r3, [pc, #436]	; (80009c4 <D1CFGR_D1CPRE+0x240>)
 8000810:	699b      	ldr	r3, [r3, #24]
 8000812:	4a6c      	ldr	r2, [pc, #432]	; (80009c4 <D1CFGR_D1CPRE+0x240>)
 8000814:	f423 6380 	bic.w	r3, r3, #1024	; 0x400
 8000818:	6193      	str	r3, [r2, #24]
		RCC->D1CFGR |= (1U<<11);
 800081a:	4b6a      	ldr	r3, [pc, #424]	; (80009c4 <D1CFGR_D1CPRE+0x240>)
 800081c:	699b      	ldr	r3, [r3, #24]
 800081e:	4a69      	ldr	r2, [pc, #420]	; (80009c4 <D1CFGR_D1CPRE+0x240>)
 8000820:	f443 6300 	orr.w	r3, r3, #2048	; 0x800
 8000824:	6193      	str	r3, [r2, #24]
	    break;
 8000826:	e0c7      	b.n	80009b8 <D1CFGR_D1CPRE+0x234>
	case 2:
		RCC->D1CFGR |= (1U<<8);
 8000828:	4b66      	ldr	r3, [pc, #408]	; (80009c4 <D1CFGR_D1CPRE+0x240>)
 800082a:	699b      	ldr	r3, [r3, #24]
 800082c:	4a65      	ldr	r2, [pc, #404]	; (80009c4 <D1CFGR_D1CPRE+0x240>)
 800082e:	f443 7380 	orr.w	r3, r3, #256	; 0x100
 8000832:	6193      	str	r3, [r2, #24]
		RCC->D1CFGR &= ~(1U<<9);
 8000834:	4b63      	ldr	r3, [pc, #396]	; (80009c4 <D1CFGR_D1CPRE+0x240>)
 8000836:	699b      	ldr	r3, [r3, #24]
 8000838:	4a62      	ldr	r2, [pc, #392]	; (80009c4 <D1CFGR_D1CPRE+0x240>)
 800083a:	f423 7300 	bic.w	r3, r3, #512	; 0x200
 800083e:	6193      	str	r3, [r2, #24]
		RCC->D1CFGR &= ~(1U<<10);
 8000840:	4b60      	ldr	r3, [pc, #384]	; (80009c4 <D1CFGR_D1CPRE+0x240>)
 8000842:	699b      	ldr	r3, [r3, #24]
 8000844:	4a5f      	ldr	r2, [pc, #380]	; (80009c4 <D1CFGR_D1CPRE+0x240>)
 8000846:	f423 6380 	bic.w	r3, r3, #1024	; 0x400
 800084a:	6193      	str	r3, [r2, #24]
		RCC->D1CFGR |= (1U<<11);
 800084c:	4b5d      	ldr	r3, [pc, #372]	; (80009c4 <D1CFGR_D1CPRE+0x240>)
 800084e:	699b      	ldr	r3, [r3, #24]
 8000850:	4a5c      	ldr	r2, [pc, #368]	; (80009c4 <D1CFGR_D1CPRE+0x240>)
 8000852:	f443 6300 	orr.w	r3, r3, #2048	; 0x800
 8000856:	6193      	str	r3, [r2, #24]
	    break;
 8000858:	e0ae      	b.n	80009b8 <D1CFGR_D1CPRE+0x234>
	case 3:
		RCC->D1CFGR &= ~(1U<<8);
 800085a:	4b5a      	ldr	r3, [pc, #360]	; (80009c4 <D1CFGR_D1CPRE+0x240>)
 800085c:	699b      	ldr	r3, [r3, #24]
 800085e:	4a59      	ldr	r2, [pc, #356]	; (80009c4 <D1CFGR_D1CPRE+0x240>)
 8000860:	f423 7380 	bic.w	r3, r3, #256	; 0x100
 8000864:	6193      	str	r3, [r2, #24]
		RCC->D1CFGR |= (1U<<9);
 8000866:	4b57      	ldr	r3, [pc, #348]	; (80009c4 <D1CFGR_D1CPRE+0x240>)
 8000868:	699b      	ldr	r3, [r3, #24]
 800086a:	4a56      	ldr	r2, [pc, #344]	; (80009c4 <D1CFGR_D1CPRE+0x240>)
 800086c:	f443 7300 	orr.w	r3, r3, #512	; 0x200
 8000870:	6193      	str	r3, [r2, #24]
		RCC->D1CFGR &= ~(1U<<10);
 8000872:	4b54      	ldr	r3, [pc, #336]	; (80009c4 <D1CFGR_D1CPRE+0x240>)
 8000874:	699b      	ldr	r3, [r3, #24]
 8000876:	4a53      	ldr	r2, [pc, #332]	; (80009c4 <D1CFGR_D1CPRE+0x240>)
 8000878:	f423 6380 	bic.w	r3, r3, #1024	; 0x400
 800087c:	6193      	str	r3, [r2, #24]
		RCC->D1CFGR |= (1U<<11);
 800087e:	4b51      	ldr	r3, [pc, #324]	; (80009c4 <D1CFGR_D1CPRE+0x240>)
 8000880:	699b      	ldr	r3, [r3, #24]
 8000882:	4a50      	ldr	r2, [pc, #320]	; (80009c4 <D1CFGR_D1CPRE+0x240>)
 8000884:	f443 6300 	orr.w	r3, r3, #2048	; 0x800
 8000888:	6193      	str	r3, [r2, #24]
	    break;
 800088a:	e095      	b.n	80009b8 <D1CFGR_D1CPRE+0x234>
	case 4:
		RCC->D1CFGR |= (1U<<8);
 800088c:	4b4d      	ldr	r3, [pc, #308]	; (80009c4 <D1CFGR_D1CPRE+0x240>)
 800088e:	699b      	ldr	r3, [r3, #24]
 8000890:	4a4c      	ldr	r2, [pc, #304]	; (80009c4 <D1CFGR_D1CPRE+0x240>)
 8000892:	f443 7380 	orr.w	r3, r3, #256	; 0x100
 8000896:	6193      	str	r3, [r2, #24]
		RCC->D1CFGR |= (1U<<9);
 8000898:	4b4a      	ldr	r3, [pc, #296]	; (80009c4 <D1CFGR_D1CPRE+0x240>)
 800089a:	699b      	ldr	r3, [r3, #24]
 800089c:	4a49      	ldr	r2, [pc, #292]	; (80009c4 <D1CFGR_D1CPRE+0x240>)
 800089e:	f443 7300 	orr.w	r3, r3, #512	; 0x200
 80008a2:	6193      	str	r3, [r2, #24]
		RCC->D1CFGR &= ~(1U<<10);
 80008a4:	4b47      	ldr	r3, [pc, #284]	; (80009c4 <D1CFGR_D1CPRE+0x240>)
 80008a6:	699b      	ldr	r3, [r3, #24]
 80008a8:	4a46      	ldr	r2, [pc, #280]	; (80009c4 <D1CFGR_D1CPRE+0x240>)
 80008aa:	f423 6380 	bic.w	r3, r3, #1024	; 0x400
 80008ae:	6193      	str	r3, [r2, #24]
		RCC->D1CFGR |= (1U<<11);
 80008b0:	4b44      	ldr	r3, [pc, #272]	; (80009c4 <D1CFGR_D1CPRE+0x240>)
 80008b2:	699b      	ldr	r3, [r3, #24]
 80008b4:	4a43      	ldr	r2, [pc, #268]	; (80009c4 <D1CFGR_D1CPRE+0x240>)
 80008b6:	f443 6300 	orr.w	r3, r3, #2048	; 0x800
 80008ba:	6193      	str	r3, [r2, #24]
		break;
 80008bc:	e07c      	b.n	80009b8 <D1CFGR_D1CPRE+0x234>
	case 5 :
		RCC->D1CFGR &= ~(1U<<8);
 80008be:	4b41      	ldr	r3, [pc, #260]	; (80009c4 <D1CFGR_D1CPRE+0x240>)
 80008c0:	699b      	ldr	r3, [r3, #24]
 80008c2:	4a40      	ldr	r2, [pc, #256]	; (80009c4 <D1CFGR_D1CPRE+0x240>)
 80008c4:	f423 7380 	bic.w	r3, r3, #256	; 0x100
 80008c8:	6193      	str	r3, [r2, #24]
		RCC->D1CFGR &= ~(1U<<9);
 80008ca:	4b3e      	ldr	r3, [pc, #248]	; (80009c4 <D1CFGR_D1CPRE+0x240>)
 80008cc:	699b      	ldr	r3, [r3, #24]
 80008ce:	4a3d      	ldr	r2, [pc, #244]	; (80009c4 <D1CFGR_D1CPRE+0x240>)
 80008d0:	f423 7300 	bic.w	r3, r3, #512	; 0x200
 80008d4:	6193      	str	r3, [r2, #24]
		RCC->D1CFGR |= (1U<<10);
 80008d6:	4b3b      	ldr	r3, [pc, #236]	; (80009c4 <D1CFGR_D1CPRE+0x240>)
 80008d8:	699b      	ldr	r3, [r3, #24]
 80008da:	4a3a      	ldr	r2, [pc, #232]	; (80009c4 <D1CFGR_D1CPRE+0x240>)
 80008dc:	f443 6380 	orr.w	r3, r3, #1024	; 0x400
 80008e0:	6193      	str	r3, [r2, #24]
		RCC->D1CFGR |= (1U<<11);
 80008e2:	4b38      	ldr	r3, [pc, #224]	; (80009c4 <D1CFGR_D1CPRE+0x240>)
 80008e4:	699b      	ldr	r3, [r3, #24]
 80008e6:	4a37      	ldr	r2, [pc, #220]	; (80009c4 <D1CFGR_D1CPRE+0x240>)
 80008e8:	f443 6300 	orr.w	r3, r3, #2048	; 0x800
 80008ec:	6193      	str	r3, [r2, #24]
		break;
 80008ee:	e063      	b.n	80009b8 <D1CFGR_D1CPRE+0x234>
	case 6 :
		RCC->D1CFGR |= (1U<<8);
 80008f0:	4b34      	ldr	r3, [pc, #208]	; (80009c4 <D1CFGR_D1CPRE+0x240>)
 80008f2:	699b      	ldr	r3, [r3, #24]
 80008f4:	4a33      	ldr	r2, [pc, #204]	; (80009c4 <D1CFGR_D1CPRE+0x240>)
 80008f6:	f443 7380 	orr.w	r3, r3, #256	; 0x100
 80008fa:	6193      	str	r3, [r2, #24]
		RCC->D1CFGR &= ~(1U<<9);
 80008fc:	4b31      	ldr	r3, [pc, #196]	; (80009c4 <D1CFGR_D1CPRE+0x240>)
 80008fe:	699b      	ldr	r3, [r3, #24]
 8000900:	4a30      	ldr	r2, [pc, #192]	; (80009c4 <D1CFGR_D1CPRE+0x240>)
 8000902:	f423 7300 	bic.w	r3, r3, #512	; 0x200
 8000906:	6193      	str	r3, [r2, #24]
		RCC->D1CFGR |= (1U<<10);
 8000908:	4b2e      	ldr	r3, [pc, #184]	; (80009c4 <D1CFGR_D1CPRE+0x240>)
 800090a:	699b      	ldr	r3, [r3, #24]
 800090c:	4a2d      	ldr	r2, [pc, #180]	; (80009c4 <D1CFGR_D1CPRE+0x240>)
 800090e:	f443 6380 	orr.w	r3, r3, #1024	; 0x400
 8000912:	6193      	str	r3, [r2, #24]
		RCC->D1CFGR |= (1U<<11);
 8000914:	4b2b      	ldr	r3, [pc, #172]	; (80009c4 <D1CFGR_D1CPRE+0x240>)
 8000916:	699b      	ldr	r3, [r3, #24]
 8000918:	4a2a      	ldr	r2, [pc, #168]	; (80009c4 <D1CFGR_D1CPRE+0x240>)
 800091a:	f443 6300 	orr.w	r3, r3, #2048	; 0x800
 800091e:	6193      	str	r3, [r2, #24]
		break;
 8000920:	e04a      	b.n	80009b8 <D1CFGR_D1CPRE+0x234>
	case 7 :
		RCC->D1CFGR &= ~(1U<<8);
 8000922:	4b28      	ldr	r3, [pc, #160]	; (80009c4 <D1CFGR_D1CPRE+0x240>)
 8000924:	699b      	ldr	r3, [r3, #24]
 8000926:	4a27      	ldr	r2, [pc, #156]	; (80009c4 <D1CFGR_D1CPRE+0x240>)
 8000928:	f423 7380 	bic.w	r3, r3, #256	; 0x100
 800092c:	6193      	str	r3, [r2, #24]
		RCC->D1CFGR |= (1U<<9);
 800092e:	4b25      	ldr	r3, [pc, #148]	; (80009c4 <D1CFGR_D1CPRE+0x240>)
 8000930:	699b      	ldr	r3, [r3, #24]
 8000932:	4a24      	ldr	r2, [pc, #144]	; (80009c4 <D1CFGR_D1CPRE+0x240>)
 8000934:	f443 7300 	orr.w	r3, r3, #512	; 0x200
 8000938:	6193      	str	r3, [r2, #24]
		RCC->D1CFGR |= (1U<<10);
 800093a:	4b22      	ldr	r3, [pc, #136]	; (80009c4 <D1CFGR_D1CPRE+0x240>)
 800093c:	699b      	ldr	r3, [r3, #24]
 800093e:	4a21      	ldr	r2, [pc, #132]	; (80009c4 <D1CFGR_D1CPRE+0x240>)
 8000940:	f443 6380 	orr.w	r3, r3, #1024	; 0x400
 8000944:	6193      	str	r3, [r2, #24]
		RCC->D1CFGR |= (1U<<11);
 8000946:	4b1f      	ldr	r3, [pc, #124]	; (80009c4 <D1CFGR_D1CPRE+0x240>)
 8000948:	699b      	ldr	r3, [r3, #24]
 800094a:	4a1e      	ldr	r2, [pc, #120]	; (80009c4 <D1CFGR_D1CPRE+0x240>)
 800094c:	f443 6300 	orr.w	r3, r3, #2048	; 0x800
 8000950:	6193      	str	r3, [r2, #24]
		break;
 8000952:	e031      	b.n	80009b8 <D1CFGR_D1CPRE+0x234>
	case 8 :
		RCC->D1CFGR |= (1U<<8);
 8000954:	4b1b      	ldr	r3, [pc, #108]	; (80009c4 <D1CFGR_D1CPRE+0x240>)
 8000956:	699b      	ldr	r3, [r3, #24]
 8000958:	4a1a      	ldr	r2, [pc, #104]	; (80009c4 <D1CFGR_D1CPRE+0x240>)
 800095a:	f443 7380 	orr.w	r3, r3, #256	; 0x100
 800095e:	6193      	str	r3, [r2, #24]
		RCC->D1CFGR |= (1U<<9);
 8000960:	4b18      	ldr	r3, [pc, #96]	; (80009c4 <D1CFGR_D1CPRE+0x240>)
 8000962:	699b      	ldr	r3, [r3, #24]
 8000964:	4a17      	ldr	r2, [pc, #92]	; (80009c4 <D1CFGR_D1CPRE+0x240>)
 8000966:	f443 7300 	orr.w	r3, r3, #512	; 0x200
 800096a:	6193      	str	r3, [r2, #24]
		RCC->D1CFGR |= (1U<<10);
 800096c:	4b15      	ldr	r3, [pc, #84]	; (80009c4 <D1CFGR_D1CPRE+0x240>)
 800096e:	699b      	ldr	r3, [r3, #24]
 8000970:	4a14      	ldr	r2, [pc, #80]	; (80009c4 <D1CFGR_D1CPRE+0x240>)
 8000972:	f443 6380 	orr.w	r3, r3, #1024	; 0x400
 8000976:	6193      	str	r3, [r2, #24]
		RCC->D1CFGR |= (1U<<11);
 8000978:	4b12      	ldr	r3, [pc, #72]	; (80009c4 <D1CFGR_D1CPRE+0x240>)
 800097a:	699b      	ldr	r3, [r3, #24]
 800097c:	4a11      	ldr	r2, [pc, #68]	; (80009c4 <D1CFGR_D1CPRE+0x240>)
 800097e:	f443 6300 	orr.w	r3, r3, #2048	; 0x800
 8000982:	6193      	str	r3, [r2, #24]
		break;
 8000984:	e018      	b.n	80009b8 <D1CFGR_D1CPRE+0x234>
	default:
		RCC->D1CFGR &= ~(1U<<8);
 8000986:	4b0f      	ldr	r3, [pc, #60]	; (80009c4 <D1CFGR_D1CPRE+0x240>)
 8000988:	699b      	ldr	r3, [r3, #24]
 800098a:	4a0e      	ldr	r2, [pc, #56]	; (80009c4 <D1CFGR_D1CPRE+0x240>)
 800098c:	f423 7380 	bic.w	r3, r3, #256	; 0x100
 8000990:	6193      	str	r3, [r2, #24]
		RCC->D1CFGR &= ~(1U<<9);
 8000992:	4b0c      	ldr	r3, [pc, #48]	; (80009c4 <D1CFGR_D1CPRE+0x240>)
 8000994:	699b      	ldr	r3, [r3, #24]
 8000996:	4a0b      	ldr	r2, [pc, #44]	; (80009c4 <D1CFGR_D1CPRE+0x240>)
 8000998:	f423 7300 	bic.w	r3, r3, #512	; 0x200
 800099c:	6193      	str	r3, [r2, #24]
		RCC->D1CFGR &= ~(1U<<10);
 800099e:	4b09      	ldr	r3, [pc, #36]	; (80009c4 <D1CFGR_D1CPRE+0x240>)
 80009a0:	699b      	ldr	r3, [r3, #24]
 80009a2:	4a08      	ldr	r2, [pc, #32]	; (80009c4 <D1CFGR_D1CPRE+0x240>)
 80009a4:	f423 6380 	bic.w	r3, r3, #1024	; 0x400
 80009a8:	6193      	str	r3, [r2, #24]
		RCC->D1CFGR &= ~(1U<<11);
 80009aa:	4b06      	ldr	r3, [pc, #24]	; (80009c4 <D1CFGR_D1CPRE+0x240>)
 80009ac:	699b      	ldr	r3, [r3, #24]
 80009ae:	4a05      	ldr	r2, [pc, #20]	; (80009c4 <D1CFGR_D1CPRE+0x240>)
 80009b0:	f423 6300 	bic.w	r3, r3, #2048	; 0x800
 80009b4:	6193      	str	r3, [r2, #24]
		break;
 80009b6:	bf00      	nop
	}
}
 80009b8:	bf00      	nop
 80009ba:	370c      	adds	r7, #12
 80009bc:	46bd      	mov	sp, r7
 80009be:	f85d 7b04 	ldr.w	r7, [sp], #4
 80009c2:	4770      	bx	lr
 80009c4:	58024400 	.word	0x58024400

080009c8 <D1CFGR_HPRE>:
 * Note: The clocks are divided by the new prescaler factor from1 to 16 periods of the slowest APB
 * clock among rcc_pclk[4:1] after HPRE update.
 * Note: Note also that rcc_hclk3 = rcc_aclk.
 */
void D1CFGR_HPRE(short HPRE)
{
 80009c8:	b480      	push	{r7}
 80009ca:	b083      	sub	sp, #12
 80009cc:	af00      	add	r7, sp, #0
 80009ce:	4603      	mov	r3, r0
 80009d0:	80fb      	strh	r3, [r7, #6]
	switch(HPRE)
 80009d2:	f9b7 3006 	ldrsh.w	r3, [r7, #6]
 80009d6:	2b08      	cmp	r3, #8
 80009d8:	f200 80f7 	bhi.w	8000bca <D1CFGR_HPRE+0x202>
 80009dc:	a201      	add	r2, pc, #4	; (adr r2, 80009e4 <D1CFGR_HPRE+0x1c>)
 80009de:	f852 f023 	ldr.w	pc, [r2, r3, lsl #2]
 80009e2:	bf00      	nop
 80009e4:	08000a09 	.word	0x08000a09
 80009e8:	08000a3b 	.word	0x08000a3b
 80009ec:	08000a6d 	.word	0x08000a6d
 80009f0:	08000a9f 	.word	0x08000a9f
 80009f4:	08000ad1 	.word	0x08000ad1
 80009f8:	08000b03 	.word	0x08000b03
 80009fc:	08000b35 	.word	0x08000b35
 8000a00:	08000b67 	.word	0x08000b67
 8000a04:	08000b99 	.word	0x08000b99
	{
	case 0 :
		RCC->D1CFGR &= ~(1U<<0);
 8000a08:	4b7f      	ldr	r3, [pc, #508]	; (8000c08 <D1CFGR_HPRE+0x240>)
 8000a0a:	699b      	ldr	r3, [r3, #24]
 8000a0c:	4a7e      	ldr	r2, [pc, #504]	; (8000c08 <D1CFGR_HPRE+0x240>)
 8000a0e:	f023 0301 	bic.w	r3, r3, #1
 8000a12:	6193      	str	r3, [r2, #24]
		RCC->D1CFGR &= ~(1U<<1);
 8000a14:	4b7c      	ldr	r3, [pc, #496]	; (8000c08 <D1CFGR_HPRE+0x240>)
 8000a16:	699b      	ldr	r3, [r3, #24]
 8000a18:	4a7b      	ldr	r2, [pc, #492]	; (8000c08 <D1CFGR_HPRE+0x240>)
 8000a1a:	f023 0302 	bic.w	r3, r3, #2
 8000a1e:	6193      	str	r3, [r2, #24]
		RCC->D1CFGR &= ~(1U<<2);
 8000a20:	4b79      	ldr	r3, [pc, #484]	; (8000c08 <D1CFGR_HPRE+0x240>)
 8000a22:	699b      	ldr	r3, [r3, #24]
 8000a24:	4a78      	ldr	r2, [pc, #480]	; (8000c08 <D1CFGR_HPRE+0x240>)
 8000a26:	f023 0304 	bic.w	r3, r3, #4
 8000a2a:	6193      	str	r3, [r2, #24]
		RCC->D1CFGR &= ~(1U<<3);
 8000a2c:	4b76      	ldr	r3, [pc, #472]	; (8000c08 <D1CFGR_HPRE+0x240>)
 8000a2e:	699b      	ldr	r3, [r3, #24]
 8000a30:	4a75      	ldr	r2, [pc, #468]	; (8000c08 <D1CFGR_HPRE+0x240>)
 8000a32:	f023 0308 	bic.w	r3, r3, #8
 8000a36:	6193      	str	r3, [r2, #24]
		break;
 8000a38:	e0e0      	b.n	8000bfc <D1CFGR_HPRE+0x234>
	case 1 :
		RCC->D1CFGR &= ~(1U<<0);
 8000a3a:	4b73      	ldr	r3, [pc, #460]	; (8000c08 <D1CFGR_HPRE+0x240>)
 8000a3c:	699b      	ldr	r3, [r3, #24]
 8000a3e:	4a72      	ldr	r2, [pc, #456]	; (8000c08 <D1CFGR_HPRE+0x240>)
 8000a40:	f023 0301 	bic.w	r3, r3, #1
 8000a44:	6193      	str	r3, [r2, #24]
		RCC->D1CFGR &= ~(1U<<1);
 8000a46:	4b70      	ldr	r3, [pc, #448]	; (8000c08 <D1CFGR_HPRE+0x240>)
 8000a48:	699b      	ldr	r3, [r3, #24]
 8000a4a:	4a6f      	ldr	r2, [pc, #444]	; (8000c08 <D1CFGR_HPRE+0x240>)
 8000a4c:	f023 0302 	bic.w	r3, r3, #2
 8000a50:	6193      	str	r3, [r2, #24]
		RCC->D1CFGR &= ~(1U<<2);
 8000a52:	4b6d      	ldr	r3, [pc, #436]	; (8000c08 <D1CFGR_HPRE+0x240>)
 8000a54:	699b      	ldr	r3, [r3, #24]
 8000a56:	4a6c      	ldr	r2, [pc, #432]	; (8000c08 <D1CFGR_HPRE+0x240>)
 8000a58:	f023 0304 	bic.w	r3, r3, #4
 8000a5c:	6193      	str	r3, [r2, #24]
		RCC->D1CFGR |= (1U<<3);
 8000a5e:	4b6a      	ldr	r3, [pc, #424]	; (8000c08 <D1CFGR_HPRE+0x240>)
 8000a60:	699b      	ldr	r3, [r3, #24]
 8000a62:	4a69      	ldr	r2, [pc, #420]	; (8000c08 <D1CFGR_HPRE+0x240>)
 8000a64:	f043 0308 	orr.w	r3, r3, #8
 8000a68:	6193      	str	r3, [r2, #24]
	    break;
 8000a6a:	e0c7      	b.n	8000bfc <D1CFGR_HPRE+0x234>
	case 2:
		RCC->D1CFGR |= (1U<<0);
 8000a6c:	4b66      	ldr	r3, [pc, #408]	; (8000c08 <D1CFGR_HPRE+0x240>)
 8000a6e:	699b      	ldr	r3, [r3, #24]
 8000a70:	4a65      	ldr	r2, [pc, #404]	; (8000c08 <D1CFGR_HPRE+0x240>)
 8000a72:	f043 0301 	orr.w	r3, r3, #1
 8000a76:	6193      	str	r3, [r2, #24]
		RCC->D1CFGR &= ~(1U<<1);
 8000a78:	4b63      	ldr	r3, [pc, #396]	; (8000c08 <D1CFGR_HPRE+0x240>)
 8000a7a:	699b      	ldr	r3, [r3, #24]
 8000a7c:	4a62      	ldr	r2, [pc, #392]	; (8000c08 <D1CFGR_HPRE+0x240>)
 8000a7e:	f023 0302 	bic.w	r3, r3, #2
 8000a82:	6193      	str	r3, [r2, #24]
		RCC->D1CFGR &= ~(1U<<2);
 8000a84:	4b60      	ldr	r3, [pc, #384]	; (8000c08 <D1CFGR_HPRE+0x240>)
 8000a86:	699b      	ldr	r3, [r3, #24]
 8000a88:	4a5f      	ldr	r2, [pc, #380]	; (8000c08 <D1CFGR_HPRE+0x240>)
 8000a8a:	f023 0304 	bic.w	r3, r3, #4
 8000a8e:	6193      	str	r3, [r2, #24]
		RCC->D1CFGR |= (1U<<3);
 8000a90:	4b5d      	ldr	r3, [pc, #372]	; (8000c08 <D1CFGR_HPRE+0x240>)
 8000a92:	699b      	ldr	r3, [r3, #24]
 8000a94:	4a5c      	ldr	r2, [pc, #368]	; (8000c08 <D1CFGR_HPRE+0x240>)
 8000a96:	f043 0308 	orr.w	r3, r3, #8
 8000a9a:	6193      	str	r3, [r2, #24]
	    break;
 8000a9c:	e0ae      	b.n	8000bfc <D1CFGR_HPRE+0x234>
	case 3:
		RCC->D1CFGR &= ~(1U<<0);
 8000a9e:	4b5a      	ldr	r3, [pc, #360]	; (8000c08 <D1CFGR_HPRE+0x240>)
 8000aa0:	699b      	ldr	r3, [r3, #24]
 8000aa2:	4a59      	ldr	r2, [pc, #356]	; (8000c08 <D1CFGR_HPRE+0x240>)
 8000aa4:	f023 0301 	bic.w	r3, r3, #1
 8000aa8:	6193      	str	r3, [r2, #24]
		RCC->D1CFGR |= (1U<<1);
 8000aaa:	4b57      	ldr	r3, [pc, #348]	; (8000c08 <D1CFGR_HPRE+0x240>)
 8000aac:	699b      	ldr	r3, [r3, #24]
 8000aae:	4a56      	ldr	r2, [pc, #344]	; (8000c08 <D1CFGR_HPRE+0x240>)
 8000ab0:	f043 0302 	orr.w	r3, r3, #2
 8000ab4:	6193      	str	r3, [r2, #24]
		RCC->D1CFGR &= ~(1U<<2);
 8000ab6:	4b54      	ldr	r3, [pc, #336]	; (8000c08 <D1CFGR_HPRE+0x240>)
 8000ab8:	699b      	ldr	r3, [r3, #24]
 8000aba:	4a53      	ldr	r2, [pc, #332]	; (8000c08 <D1CFGR_HPRE+0x240>)
 8000abc:	f023 0304 	bic.w	r3, r3, #4
 8000ac0:	6193      	str	r3, [r2, #24]
		RCC->D1CFGR |= (1U<<3);
 8000ac2:	4b51      	ldr	r3, [pc, #324]	; (8000c08 <D1CFGR_HPRE+0x240>)
 8000ac4:	699b      	ldr	r3, [r3, #24]
 8000ac6:	4a50      	ldr	r2, [pc, #320]	; (8000c08 <D1CFGR_HPRE+0x240>)
 8000ac8:	f043 0308 	orr.w	r3, r3, #8
 8000acc:	6193      	str	r3, [r2, #24]
	    break;
 8000ace:	e095      	b.n	8000bfc <D1CFGR_HPRE+0x234>
	case 4:
		RCC->D1CFGR |= (1U<<0);
 8000ad0:	4b4d      	ldr	r3, [pc, #308]	; (8000c08 <D1CFGR_HPRE+0x240>)
 8000ad2:	699b      	ldr	r3, [r3, #24]
 8000ad4:	4a4c      	ldr	r2, [pc, #304]	; (8000c08 <D1CFGR_HPRE+0x240>)
 8000ad6:	f043 0301 	orr.w	r3, r3, #1
 8000ada:	6193      	str	r3, [r2, #24]
		RCC->D1CFGR |= (1U<<1);
 8000adc:	4b4a      	ldr	r3, [pc, #296]	; (8000c08 <D1CFGR_HPRE+0x240>)
 8000ade:	699b      	ldr	r3, [r3, #24]
 8000ae0:	4a49      	ldr	r2, [pc, #292]	; (8000c08 <D1CFGR_HPRE+0x240>)
 8000ae2:	f043 0302 	orr.w	r3, r3, #2
 8000ae6:	6193      	str	r3, [r2, #24]
		RCC->D1CFGR &= ~(1U<<2);
 8000ae8:	4b47      	ldr	r3, [pc, #284]	; (8000c08 <D1CFGR_HPRE+0x240>)
 8000aea:	699b      	ldr	r3, [r3, #24]
 8000aec:	4a46      	ldr	r2, [pc, #280]	; (8000c08 <D1CFGR_HPRE+0x240>)
 8000aee:	f023 0304 	bic.w	r3, r3, #4
 8000af2:	6193      	str	r3, [r2, #24]
		RCC->D1CFGR |= (1U<<3);
 8000af4:	4b44      	ldr	r3, [pc, #272]	; (8000c08 <D1CFGR_HPRE+0x240>)
 8000af6:	699b      	ldr	r3, [r3, #24]
 8000af8:	4a43      	ldr	r2, [pc, #268]	; (8000c08 <D1CFGR_HPRE+0x240>)
 8000afa:	f043 0308 	orr.w	r3, r3, #8
 8000afe:	6193      	str	r3, [r2, #24]
		break;
 8000b00:	e07c      	b.n	8000bfc <D1CFGR_HPRE+0x234>
	case 5 :
		RCC->D1CFGR &= ~(1U<<0);
 8000b02:	4b41      	ldr	r3, [pc, #260]	; (8000c08 <D1CFGR_HPRE+0x240>)
 8000b04:	699b      	ldr	r3, [r3, #24]
 8000b06:	4a40      	ldr	r2, [pc, #256]	; (8000c08 <D1CFGR_HPRE+0x240>)
 8000b08:	f023 0301 	bic.w	r3, r3, #1
 8000b0c:	6193      	str	r3, [r2, #24]
		RCC->D1CFGR &= ~(1U<<1);
 8000b0e:	4b3e      	ldr	r3, [pc, #248]	; (8000c08 <D1CFGR_HPRE+0x240>)
 8000b10:	699b      	ldr	r3, [r3, #24]
 8000b12:	4a3d      	ldr	r2, [pc, #244]	; (8000c08 <D1CFGR_HPRE+0x240>)
 8000b14:	f023 0302 	bic.w	r3, r3, #2
 8000b18:	6193      	str	r3, [r2, #24]
		RCC->D1CFGR |= (1U<<2);
 8000b1a:	4b3b      	ldr	r3, [pc, #236]	; (8000c08 <D1CFGR_HPRE+0x240>)
 8000b1c:	699b      	ldr	r3, [r3, #24]
 8000b1e:	4a3a      	ldr	r2, [pc, #232]	; (8000c08 <D1CFGR_HPRE+0x240>)
 8000b20:	f043 0304 	orr.w	r3, r3, #4
 8000b24:	6193      	str	r3, [r2, #24]
		RCC->D1CFGR |= (1U<<3);
 8000b26:	4b38      	ldr	r3, [pc, #224]	; (8000c08 <D1CFGR_HPRE+0x240>)
 8000b28:	699b      	ldr	r3, [r3, #24]
 8000b2a:	4a37      	ldr	r2, [pc, #220]	; (8000c08 <D1CFGR_HPRE+0x240>)
 8000b2c:	f043 0308 	orr.w	r3, r3, #8
 8000b30:	6193      	str	r3, [r2, #24]
		break;
 8000b32:	e063      	b.n	8000bfc <D1CFGR_HPRE+0x234>
	case 6 :
		RCC->D1CFGR |= (1U<<0);
 8000b34:	4b34      	ldr	r3, [pc, #208]	; (8000c08 <D1CFGR_HPRE+0x240>)
 8000b36:	699b      	ldr	r3, [r3, #24]
 8000b38:	4a33      	ldr	r2, [pc, #204]	; (8000c08 <D1CFGR_HPRE+0x240>)
 8000b3a:	f043 0301 	orr.w	r3, r3, #1
 8000b3e:	6193      	str	r3, [r2, #24]
		RCC->D1CFGR &= ~(1U<<1);
 8000b40:	4b31      	ldr	r3, [pc, #196]	; (8000c08 <D1CFGR_HPRE+0x240>)
 8000b42:	699b      	ldr	r3, [r3, #24]
 8000b44:	4a30      	ldr	r2, [pc, #192]	; (8000c08 <D1CFGR_HPRE+0x240>)
 8000b46:	f023 0302 	bic.w	r3, r3, #2
 8000b4a:	6193      	str	r3, [r2, #24]
		RCC->D1CFGR |= (1U<<2);
 8000b4c:	4b2e      	ldr	r3, [pc, #184]	; (8000c08 <D1CFGR_HPRE+0x240>)
 8000b4e:	699b      	ldr	r3, [r3, #24]
 8000b50:	4a2d      	ldr	r2, [pc, #180]	; (8000c08 <D1CFGR_HPRE+0x240>)
 8000b52:	f043 0304 	orr.w	r3, r3, #4
 8000b56:	6193      	str	r3, [r2, #24]
		RCC->D1CFGR |= (1U<<3);
 8000b58:	4b2b      	ldr	r3, [pc, #172]	; (8000c08 <D1CFGR_HPRE+0x240>)
 8000b5a:	699b      	ldr	r3, [r3, #24]
 8000b5c:	4a2a      	ldr	r2, [pc, #168]	; (8000c08 <D1CFGR_HPRE+0x240>)
 8000b5e:	f043 0308 	orr.w	r3, r3, #8
 8000b62:	6193      	str	r3, [r2, #24]
		break;
 8000b64:	e04a      	b.n	8000bfc <D1CFGR_HPRE+0x234>
	case 7 :
		RCC->D1CFGR &= ~(1U<<0);
 8000b66:	4b28      	ldr	r3, [pc, #160]	; (8000c08 <D1CFGR_HPRE+0x240>)
 8000b68:	699b      	ldr	r3, [r3, #24]
 8000b6a:	4a27      	ldr	r2, [pc, #156]	; (8000c08 <D1CFGR_HPRE+0x240>)
 8000b6c:	f023 0301 	bic.w	r3, r3, #1
 8000b70:	6193      	str	r3, [r2, #24]
		RCC->D1CFGR |= (1U<<1);
 8000b72:	4b25      	ldr	r3, [pc, #148]	; (8000c08 <D1CFGR_HPRE+0x240>)
 8000b74:	699b      	ldr	r3, [r3, #24]
 8000b76:	4a24      	ldr	r2, [pc, #144]	; (8000c08 <D1CFGR_HPRE+0x240>)
 8000b78:	f043 0302 	orr.w	r3, r3, #2
 8000b7c:	6193      	str	r3, [r2, #24]
		RCC->D1CFGR |= (1U<<2);
 8000b7e:	4b22      	ldr	r3, [pc, #136]	; (8000c08 <D1CFGR_HPRE+0x240>)
 8000b80:	699b      	ldr	r3, [r3, #24]
 8000b82:	4a21      	ldr	r2, [pc, #132]	; (8000c08 <D1CFGR_HPRE+0x240>)
 8000b84:	f043 0304 	orr.w	r3, r3, #4
 8000b88:	6193      	str	r3, [r2, #24]
		RCC->D1CFGR |= (1U<<3);
 8000b8a:	4b1f      	ldr	r3, [pc, #124]	; (8000c08 <D1CFGR_HPRE+0x240>)
 8000b8c:	699b      	ldr	r3, [r3, #24]
 8000b8e:	4a1e      	ldr	r2, [pc, #120]	; (8000c08 <D1CFGR_HPRE+0x240>)
 8000b90:	f043 0308 	orr.w	r3, r3, #8
 8000b94:	6193      	str	r3, [r2, #24]
		break;
 8000b96:	e031      	b.n	8000bfc <D1CFGR_HPRE+0x234>
	case 8 :
		RCC->D1CFGR |= (1U<<0);
 8000b98:	4b1b      	ldr	r3, [pc, #108]	; (8000c08 <D1CFGR_HPRE+0x240>)
 8000b9a:	699b      	ldr	r3, [r3, #24]
 8000b9c:	4a1a      	ldr	r2, [pc, #104]	; (8000c08 <D1CFGR_HPRE+0x240>)
 8000b9e:	f043 0301 	orr.w	r3, r3, #1
 8000ba2:	6193      	str	r3, [r2, #24]
		RCC->D1CFGR |= (1U<<1);
 8000ba4:	4b18      	ldr	r3, [pc, #96]	; (8000c08 <D1CFGR_HPRE+0x240>)
 8000ba6:	699b      	ldr	r3, [r3, #24]
 8000ba8:	4a17      	ldr	r2, [pc, #92]	; (8000c08 <D1CFGR_HPRE+0x240>)
 8000baa:	f043 0302 	orr.w	r3, r3, #2
 8000bae:	6193      	str	r3, [r2, #24]
		RCC->D1CFGR |= (1U<<2);
 8000bb0:	4b15      	ldr	r3, [pc, #84]	; (8000c08 <D1CFGR_HPRE+0x240>)
 8000bb2:	699b      	ldr	r3, [r3, #24]
 8000bb4:	4a14      	ldr	r2, [pc, #80]	; (8000c08 <D1CFGR_HPRE+0x240>)
 8000bb6:	f043 0304 	orr.w	r3, r3, #4
 8000bba:	6193      	str	r3, [r2, #24]
		RCC->D1CFGR |= (1U<<3);
 8000bbc:	4b12      	ldr	r3, [pc, #72]	; (8000c08 <D1CFGR_HPRE+0x240>)
 8000bbe:	699b      	ldr	r3, [r3, #24]
 8000bc0:	4a11      	ldr	r2, [pc, #68]	; (8000c08 <D1CFGR_HPRE+0x240>)
 8000bc2:	f043 0308 	orr.w	r3, r3, #8
 8000bc6:	6193      	str	r3, [r2, #24]
		break;
 8000bc8:	e018      	b.n	8000bfc <D1CFGR_HPRE+0x234>
	default:
		RCC->D1CFGR &= ~(1U<<0);
 8000bca:	4b0f      	ldr	r3, [pc, #60]	; (8000c08 <D1CFGR_HPRE+0x240>)
 8000bcc:	699b      	ldr	r3, [r3, #24]
 8000bce:	4a0e      	ldr	r2, [pc, #56]	; (8000c08 <D1CFGR_HPRE+0x240>)
 8000bd0:	f023 0301 	bic.w	r3, r3, #1
 8000bd4:	6193      	str	r3, [r2, #24]
		RCC->D1CFGR &= ~(1U<<1);
 8000bd6:	4b0c      	ldr	r3, [pc, #48]	; (8000c08 <D1CFGR_HPRE+0x240>)
 8000bd8:	699b      	ldr	r3, [r3, #24]
 8000bda:	4a0b      	ldr	r2, [pc, #44]	; (8000c08 <D1CFGR_HPRE+0x240>)
 8000bdc:	f023 0302 	bic.w	r3, r3, #2
 8000be0:	6193      	str	r3, [r2, #24]
		RCC->D1CFGR &= ~(1U<<2);
 8000be2:	4b09      	ldr	r3, [pc, #36]	; (8000c08 <D1CFGR_HPRE+0x240>)
 8000be4:	699b      	ldr	r3, [r3, #24]
 8000be6:	4a08      	ldr	r2, [pc, #32]	; (8000c08 <D1CFGR_HPRE+0x240>)
 8000be8:	f023 0304 	bic.w	r3, r3, #4
 8000bec:	6193      	str	r3, [r2, #24]
		RCC->D1CFGR &= ~(1U<<3);
 8000bee:	4b06      	ldr	r3, [pc, #24]	; (8000c08 <D1CFGR_HPRE+0x240>)
 8000bf0:	699b      	ldr	r3, [r3, #24]
 8000bf2:	4a05      	ldr	r2, [pc, #20]	; (8000c08 <D1CFGR_HPRE+0x240>)
 8000bf4:	f023 0308 	bic.w	r3, r3, #8
 8000bf8:	6193      	str	r3, [r2, #24]
		break;
 8000bfa:	bf00      	nop
	}
}
 8000bfc:	bf00      	nop
 8000bfe:	370c      	adds	r7, #12
 8000c00:	46bd      	mov	sp, r7
 8000c02:	f85d 7b04 	ldr.w	r7, [sp], #4
 8000c06:	4770      	bx	lr
 8000c08:	58024400 	.word	0x58024400

08000c0c <D1PPRE>:
 * 2: rcc_pclk3 = rcc_hclk3 / 4
 * 3: rcc_pclk3 = rcc_hclk3 / 8
 * 4: rcc_pclk3 = rcc_hclk3 / 16
 */
void D1PPRE(short D1PPRE)
{
 8000c0c:	b480      	push	{r7}
 8000c0e:	b083      	sub	sp, #12
 8000c10:	af00      	add	r7, sp, #0
 8000c12:	4603      	mov	r3, r0
 8000c14:	80fb      	strh	r3, [r7, #6]
	switch (D1PPRE)
 8000c16:	f9b7 3006 	ldrsh.w	r3, [r7, #6]
 8000c1a:	2b04      	cmp	r3, #4
 8000c1c:	d867      	bhi.n	8000cee <D1PPRE+0xe2>
 8000c1e:	a201      	add	r2, pc, #4	; (adr r2, 8000c24 <D1PPRE+0x18>)
 8000c20:	f852 f023 	ldr.w	pc, [r2, r3, lsl #2]
 8000c24:	08000c39 	.word	0x08000c39
 8000c28:	08000c5f 	.word	0x08000c5f
 8000c2c:	08000c83 	.word	0x08000c83
 8000c30:	08000ca7 	.word	0x08000ca7
 8000c34:	08000ccb 	.word	0x08000ccb
	{
	case 0 :
		RCC->D1CFGR &= ~(1U<<4);
 8000c38:	4b39      	ldr	r3, [pc, #228]	; (8000d20 <D1PPRE+0x114>)
 8000c3a:	699b      	ldr	r3, [r3, #24]
 8000c3c:	4a38      	ldr	r2, [pc, #224]	; (8000d20 <D1PPRE+0x114>)
 8000c3e:	f023 0310 	bic.w	r3, r3, #16
 8000c42:	6193      	str	r3, [r2, #24]
		RCC->D1CFGR &= ~(1U<<5);
 8000c44:	4b36      	ldr	r3, [pc, #216]	; (8000d20 <D1PPRE+0x114>)
 8000c46:	699b      	ldr	r3, [r3, #24]
 8000c48:	4a35      	ldr	r2, [pc, #212]	; (8000d20 <D1PPRE+0x114>)
 8000c4a:	f023 0320 	bic.w	r3, r3, #32
 8000c4e:	6193      	str	r3, [r2, #24]
		RCC->D1CFGR &= ~(1U<<6);
 8000c50:	4b33      	ldr	r3, [pc, #204]	; (8000d20 <D1PPRE+0x114>)
 8000c52:	699b      	ldr	r3, [r3, #24]
 8000c54:	4a32      	ldr	r2, [pc, #200]	; (8000d20 <D1PPRE+0x114>)
 8000c56:	f023 0340 	bic.w	r3, r3, #64	; 0x40
 8000c5a:	6193      	str	r3, [r2, #24]
		break;
 8000c5c:	e05a      	b.n	8000d14 <D1PPRE+0x108>
	case 1 :
		RCC->D1CFGR &= ~(1U<<4);
 8000c5e:	4b30      	ldr	r3, [pc, #192]	; (8000d20 <D1PPRE+0x114>)
 8000c60:	699b      	ldr	r3, [r3, #24]
 8000c62:	4a2f      	ldr	r2, [pc, #188]	; (8000d20 <D1PPRE+0x114>)
 8000c64:	f023 0310 	bic.w	r3, r3, #16
 8000c68:	6193      	str	r3, [r2, #24]
		RCC->D1CFGR &= ~(1U<<5);
 8000c6a:	4b2d      	ldr	r3, [pc, #180]	; (8000d20 <D1PPRE+0x114>)
 8000c6c:	699b      	ldr	r3, [r3, #24]
 8000c6e:	4a2c      	ldr	r2, [pc, #176]	; (8000d20 <D1PPRE+0x114>)
 8000c70:	f023 0320 	bic.w	r3, r3, #32
 8000c74:	6193      	str	r3, [r2, #24]
		RCC->D1CFGR |= (1U<<6);
 8000c76:	4b2a      	ldr	r3, [pc, #168]	; (8000d20 <D1PPRE+0x114>)
 8000c78:	699b      	ldr	r3, [r3, #24]
 8000c7a:	4a29      	ldr	r2, [pc, #164]	; (8000d20 <D1PPRE+0x114>)
 8000c7c:	f043 0340 	orr.w	r3, r3, #64	; 0x40
 8000c80:	6193      	str	r3, [r2, #24]
	case 2 :
		RCC->D1CFGR |= (1U<<4);
 8000c82:	4b27      	ldr	r3, [pc, #156]	; (8000d20 <D1PPRE+0x114>)
 8000c84:	699b      	ldr	r3, [r3, #24]
 8000c86:	4a26      	ldr	r2, [pc, #152]	; (8000d20 <D1PPRE+0x114>)
 8000c88:	f043 0310 	orr.w	r3, r3, #16
 8000c8c:	6193      	str	r3, [r2, #24]
		RCC->D1CFGR &= ~(1U<<5);
 8000c8e:	4b24      	ldr	r3, [pc, #144]	; (8000d20 <D1PPRE+0x114>)
 8000c90:	699b      	ldr	r3, [r3, #24]
 8000c92:	4a23      	ldr	r2, [pc, #140]	; (8000d20 <D1PPRE+0x114>)
 8000c94:	f023 0320 	bic.w	r3, r3, #32
 8000c98:	6193      	str	r3, [r2, #24]
		RCC->D1CFGR |= (1U<<6);
 8000c9a:	4b21      	ldr	r3, [pc, #132]	; (8000d20 <D1PPRE+0x114>)
 8000c9c:	699b      	ldr	r3, [r3, #24]
 8000c9e:	4a20      	ldr	r2, [pc, #128]	; (8000d20 <D1PPRE+0x114>)
 8000ca0:	f043 0340 	orr.w	r3, r3, #64	; 0x40
 8000ca4:	6193      	str	r3, [r2, #24]
	case 3 :
		RCC->D1CFGR &= ~(1U<<4);
 8000ca6:	4b1e      	ldr	r3, [pc, #120]	; (8000d20 <D1PPRE+0x114>)
 8000ca8:	699b      	ldr	r3, [r3, #24]
 8000caa:	4a1d      	ldr	r2, [pc, #116]	; (8000d20 <D1PPRE+0x114>)
 8000cac:	f023 0310 	bic.w	r3, r3, #16
 8000cb0:	6193      	str	r3, [r2, #24]
		RCC->D1CFGR |= (1U<<5);
 8000cb2:	4b1b      	ldr	r3, [pc, #108]	; (8000d20 <D1PPRE+0x114>)
 8000cb4:	699b      	ldr	r3, [r3, #24]
 8000cb6:	4a1a      	ldr	r2, [pc, #104]	; (8000d20 <D1PPRE+0x114>)
 8000cb8:	f043 0320 	orr.w	r3, r3, #32
 8000cbc:	6193      	str	r3, [r2, #24]
		RCC->D1CFGR |= (1U<<6);
 8000cbe:	4b18      	ldr	r3, [pc, #96]	; (8000d20 <D1PPRE+0x114>)
 8000cc0:	699b      	ldr	r3, [r3, #24]
 8000cc2:	4a17      	ldr	r2, [pc, #92]	; (8000d20 <D1PPRE+0x114>)
 8000cc4:	f043 0340 	orr.w	r3, r3, #64	; 0x40
 8000cc8:	6193      	str	r3, [r2, #24]
	case 4 :
		RCC->D1CFGR |= (1U<<4);
 8000cca:	4b15      	ldr	r3, [pc, #84]	; (8000d20 <D1PPRE+0x114>)
 8000ccc:	699b      	ldr	r3, [r3, #24]
 8000cce:	4a14      	ldr	r2, [pc, #80]	; (8000d20 <D1PPRE+0x114>)
 8000cd0:	f043 0310 	orr.w	r3, r3, #16
 8000cd4:	6193      	str	r3, [r2, #24]
		RCC->D1CFGR |= (1U<<5);
 8000cd6:	4b12      	ldr	r3, [pc, #72]	; (8000d20 <D1PPRE+0x114>)
 8000cd8:	699b      	ldr	r3, [r3, #24]
 8000cda:	4a11      	ldr	r2, [pc, #68]	; (8000d20 <D1PPRE+0x114>)
 8000cdc:	f043 0320 	orr.w	r3, r3, #32
 8000ce0:	6193      	str	r3, [r2, #24]
		RCC->D1CFGR |= (1U<<6);
 8000ce2:	4b0f      	ldr	r3, [pc, #60]	; (8000d20 <D1PPRE+0x114>)
 8000ce4:	699b      	ldr	r3, [r3, #24]
 8000ce6:	4a0e      	ldr	r2, [pc, #56]	; (8000d20 <D1PPRE+0x114>)
 8000ce8:	f043 0340 	orr.w	r3, r3, #64	; 0x40
 8000cec:	6193      	str	r3, [r2, #24]
	default:
		RCC->D1CFGR &= ~(1U<<4);
 8000cee:	4b0c      	ldr	r3, [pc, #48]	; (8000d20 <D1PPRE+0x114>)
 8000cf0:	699b      	ldr	r3, [r3, #24]
 8000cf2:	4a0b      	ldr	r2, [pc, #44]	; (8000d20 <D1PPRE+0x114>)
 8000cf4:	f023 0310 	bic.w	r3, r3, #16
 8000cf8:	6193      	str	r3, [r2, #24]
		RCC->D1CFGR &= ~(1U<<5);
 8000cfa:	4b09      	ldr	r3, [pc, #36]	; (8000d20 <D1PPRE+0x114>)
 8000cfc:	699b      	ldr	r3, [r3, #24]
 8000cfe:	4a08      	ldr	r2, [pc, #32]	; (8000d20 <D1PPRE+0x114>)
 8000d00:	f023 0320 	bic.w	r3, r3, #32
 8000d04:	6193      	str	r3, [r2, #24]
		RCC->D1CFGR &= ~(1U<<6);
 8000d06:	4b06      	ldr	r3, [pc, #24]	; (8000d20 <D1PPRE+0x114>)
 8000d08:	699b      	ldr	r3, [r3, #24]
 8000d0a:	4a05      	ldr	r2, [pc, #20]	; (8000d20 <D1PPRE+0x114>)
 8000d0c:	f023 0340 	bic.w	r3, r3, #64	; 0x40
 8000d10:	6193      	str	r3, [r2, #24]
		break;
 8000d12:	bf00      	nop
	}
}
 8000d14:	bf00      	nop
 8000d16:	370c      	adds	r7, #12
 8000d18:	46bd      	mov	sp, r7
 8000d1a:	f85d 7b04 	ldr.w	r7, [sp], #4
 8000d1e:	4770      	bx	lr
 8000d20:	58024400 	.word	0x58024400

08000d24 <D2PPRE1>:
 *  3: rcc_pclk1 = rcc_hclk1 / 8
 *  4: rcc_pclk1 = rcc_hclk1 / 16
 *  Bits 3:0 Reserved, must be kept at reset value.
 */
void D2PPRE1(short D2PPRE1)
{
 8000d24:	b480      	push	{r7}
 8000d26:	b083      	sub	sp, #12
 8000d28:	af00      	add	r7, sp, #0
 8000d2a:	4603      	mov	r3, r0
 8000d2c:	80fb      	strh	r3, [r7, #6]
	switch (D2PPRE1)
 8000d2e:	f9b7 3006 	ldrsh.w	r3, [r7, #6]
 8000d32:	2b04      	cmp	r3, #4
 8000d34:	d867      	bhi.n	8000e06 <D2PPRE1+0xe2>
 8000d36:	a201      	add	r2, pc, #4	; (adr r2, 8000d3c <D2PPRE1+0x18>)
 8000d38:	f852 f023 	ldr.w	pc, [r2, r3, lsl #2]
 8000d3c:	08000d51 	.word	0x08000d51
 8000d40:	08000d77 	.word	0x08000d77
 8000d44:	08000d9b 	.word	0x08000d9b
 8000d48:	08000dbf 	.word	0x08000dbf
 8000d4c:	08000de3 	.word	0x08000de3
	{
	case 0 :
		RCC->D2CFGR &= ~(1U<<4);
 8000d50:	4b39      	ldr	r3, [pc, #228]	; (8000e38 <D2PPRE1+0x114>)
 8000d52:	69db      	ldr	r3, [r3, #28]
 8000d54:	4a38      	ldr	r2, [pc, #224]	; (8000e38 <D2PPRE1+0x114>)
 8000d56:	f023 0310 	bic.w	r3, r3, #16
 8000d5a:	61d3      	str	r3, [r2, #28]
		RCC->D2CFGR &= ~(1U<<5);
 8000d5c:	4b36      	ldr	r3, [pc, #216]	; (8000e38 <D2PPRE1+0x114>)
 8000d5e:	69db      	ldr	r3, [r3, #28]
 8000d60:	4a35      	ldr	r2, [pc, #212]	; (8000e38 <D2PPRE1+0x114>)
 8000d62:	f023 0320 	bic.w	r3, r3, #32
 8000d66:	61d3      	str	r3, [r2, #28]
		RCC->D2CFGR &= ~(1U<<6);
 8000d68:	4b33      	ldr	r3, [pc, #204]	; (8000e38 <D2PPRE1+0x114>)
 8000d6a:	69db      	ldr	r3, [r3, #28]
 8000d6c:	4a32      	ldr	r2, [pc, #200]	; (8000e38 <D2PPRE1+0x114>)
 8000d6e:	f023 0340 	bic.w	r3, r3, #64	; 0x40
 8000d72:	61d3      	str	r3, [r2, #28]
		break;
 8000d74:	e05a      	b.n	8000e2c <D2PPRE1+0x108>
	case 1 :
		RCC->D2CFGR &= ~(1U<<4);
 8000d76:	4b30      	ldr	r3, [pc, #192]	; (8000e38 <D2PPRE1+0x114>)
 8000d78:	69db      	ldr	r3, [r3, #28]
 8000d7a:	4a2f      	ldr	r2, [pc, #188]	; (8000e38 <D2PPRE1+0x114>)
 8000d7c:	f023 0310 	bic.w	r3, r3, #16
 8000d80:	61d3      	str	r3, [r2, #28]
		RCC->D2CFGR &= ~(1U<<5);
 8000d82:	4b2d      	ldr	r3, [pc, #180]	; (8000e38 <D2PPRE1+0x114>)
 8000d84:	69db      	ldr	r3, [r3, #28]
 8000d86:	4a2c      	ldr	r2, [pc, #176]	; (8000e38 <D2PPRE1+0x114>)
 8000d88:	f023 0320 	bic.w	r3, r3, #32
 8000d8c:	61d3      	str	r3, [r2, #28]
		RCC->D2CFGR |= (1U<<6);
 8000d8e:	4b2a      	ldr	r3, [pc, #168]	; (8000e38 <D2PPRE1+0x114>)
 8000d90:	69db      	ldr	r3, [r3, #28]
 8000d92:	4a29      	ldr	r2, [pc, #164]	; (8000e38 <D2PPRE1+0x114>)
 8000d94:	f043 0340 	orr.w	r3, r3, #64	; 0x40
 8000d98:	61d3      	str	r3, [r2, #28]
	case 2 :
		RCC->D2CFGR |= (1U<<4);
 8000d9a:	4b27      	ldr	r3, [pc, #156]	; (8000e38 <D2PPRE1+0x114>)
 8000d9c:	69db      	ldr	r3, [r3, #28]
 8000d9e:	4a26      	ldr	r2, [pc, #152]	; (8000e38 <D2PPRE1+0x114>)
 8000da0:	f043 0310 	orr.w	r3, r3, #16
 8000da4:	61d3      	str	r3, [r2, #28]
		RCC->D2CFGR &= ~(1U<<5);
 8000da6:	4b24      	ldr	r3, [pc, #144]	; (8000e38 <D2PPRE1+0x114>)
 8000da8:	69db      	ldr	r3, [r3, #28]
 8000daa:	4a23      	ldr	r2, [pc, #140]	; (8000e38 <D2PPRE1+0x114>)
 8000dac:	f023 0320 	bic.w	r3, r3, #32
 8000db0:	61d3      	str	r3, [r2, #28]
		RCC->D2CFGR |= (1U<<6);
 8000db2:	4b21      	ldr	r3, [pc, #132]	; (8000e38 <D2PPRE1+0x114>)
 8000db4:	69db      	ldr	r3, [r3, #28]
 8000db6:	4a20      	ldr	r2, [pc, #128]	; (8000e38 <D2PPRE1+0x114>)
 8000db8:	f043 0340 	orr.w	r3, r3, #64	; 0x40
 8000dbc:	61d3      	str	r3, [r2, #28]
	case 3 :
		RCC->D2CFGR &= ~(1U<<4);
 8000dbe:	4b1e      	ldr	r3, [pc, #120]	; (8000e38 <D2PPRE1+0x114>)
 8000dc0:	69db      	ldr	r3, [r3, #28]
 8000dc2:	4a1d      	ldr	r2, [pc, #116]	; (8000e38 <D2PPRE1+0x114>)
 8000dc4:	f023 0310 	bic.w	r3, r3, #16
 8000dc8:	61d3      	str	r3, [r2, #28]
		RCC->D2CFGR |= (1U<<5);
 8000dca:	4b1b      	ldr	r3, [pc, #108]	; (8000e38 <D2PPRE1+0x114>)
 8000dcc:	69db      	ldr	r3, [r3, #28]
 8000dce:	4a1a      	ldr	r2, [pc, #104]	; (8000e38 <D2PPRE1+0x114>)
 8000dd0:	f043 0320 	orr.w	r3, r3, #32
 8000dd4:	61d3      	str	r3, [r2, #28]
		RCC->D2CFGR |= (1U<<6);
 8000dd6:	4b18      	ldr	r3, [pc, #96]	; (8000e38 <D2PPRE1+0x114>)
 8000dd8:	69db      	ldr	r3, [r3, #28]
 8000dda:	4a17      	ldr	r2, [pc, #92]	; (8000e38 <D2PPRE1+0x114>)
 8000ddc:	f043 0340 	orr.w	r3, r3, #64	; 0x40
 8000de0:	61d3      	str	r3, [r2, #28]
	case 4 :
		RCC->D2CFGR |= (1U<<4);
 8000de2:	4b15      	ldr	r3, [pc, #84]	; (8000e38 <D2PPRE1+0x114>)
 8000de4:	69db      	ldr	r3, [r3, #28]
 8000de6:	4a14      	ldr	r2, [pc, #80]	; (8000e38 <D2PPRE1+0x114>)
 8000de8:	f043 0310 	orr.w	r3, r3, #16
 8000dec:	61d3      	str	r3, [r2, #28]
		RCC->D2CFGR |= (1U<<5);
 8000dee:	4b12      	ldr	r3, [pc, #72]	; (8000e38 <D2PPRE1+0x114>)
 8000df0:	69db      	ldr	r3, [r3, #28]
 8000df2:	4a11      	ldr	r2, [pc, #68]	; (8000e38 <D2PPRE1+0x114>)
 8000df4:	f043 0320 	orr.w	r3, r3, #32
 8000df8:	61d3      	str	r3, [r2, #28]
		RCC->D2CFGR |= (1U<<6);
 8000dfa:	4b0f      	ldr	r3, [pc, #60]	; (8000e38 <D2PPRE1+0x114>)
 8000dfc:	69db      	ldr	r3, [r3, #28]
 8000dfe:	4a0e      	ldr	r2, [pc, #56]	; (8000e38 <D2PPRE1+0x114>)
 8000e00:	f043 0340 	orr.w	r3, r3, #64	; 0x40
 8000e04:	61d3      	str	r3, [r2, #28]
	default:
		RCC->D2CFGR &= ~(1U<<4);
 8000e06:	4b0c      	ldr	r3, [pc, #48]	; (8000e38 <D2PPRE1+0x114>)
 8000e08:	69db      	ldr	r3, [r3, #28]
 8000e0a:	4a0b      	ldr	r2, [pc, #44]	; (8000e38 <D2PPRE1+0x114>)
 8000e0c:	f023 0310 	bic.w	r3, r3, #16
 8000e10:	61d3      	str	r3, [r2, #28]
		RCC->D2CFGR &= ~(1U<<5);
 8000e12:	4b09      	ldr	r3, [pc, #36]	; (8000e38 <D2PPRE1+0x114>)
 8000e14:	69db      	ldr	r3, [r3, #28]
 8000e16:	4a08      	ldr	r2, [pc, #32]	; (8000e38 <D2PPRE1+0x114>)
 8000e18:	f023 0320 	bic.w	r3, r3, #32
 8000e1c:	61d3      	str	r3, [r2, #28]
		RCC->D2CFGR &= ~(1U<<6);
 8000e1e:	4b06      	ldr	r3, [pc, #24]	; (8000e38 <D2PPRE1+0x114>)
 8000e20:	69db      	ldr	r3, [r3, #28]
 8000e22:	4a05      	ldr	r2, [pc, #20]	; (8000e38 <D2PPRE1+0x114>)
 8000e24:	f023 0340 	bic.w	r3, r3, #64	; 0x40
 8000e28:	61d3      	str	r3, [r2, #28]
		break;
 8000e2a:	bf00      	nop
	}
}
 8000e2c:	bf00      	nop
 8000e2e:	370c      	adds	r7, #12
 8000e30:	46bd      	mov	sp, r7
 8000e32:	f85d 7b04 	ldr.w	r7, [sp], #4
 8000e36:	4770      	bx	lr
 8000e38:	58024400 	.word	0x58024400

08000e3c <D3PPRE>:
110: rcc_pclk4 = rcc_hclk4 / 8
111: rcc_pclk4 = rcc_hclk4 / 16
Bits 3:0 Reserved, must be kept at reset value
 */
void D3PPRE(short D3PPRE)
{
 8000e3c:	b480      	push	{r7}
 8000e3e:	b083      	sub	sp, #12
 8000e40:	af00      	add	r7, sp, #0
 8000e42:	4603      	mov	r3, r0
 8000e44:	80fb      	strh	r3, [r7, #6]
	switch (D3PPRE)
 8000e46:	f9b7 3006 	ldrsh.w	r3, [r7, #6]
 8000e4a:	2b04      	cmp	r3, #4
 8000e4c:	d867      	bhi.n	8000f1e <D3PPRE+0xe2>
 8000e4e:	a201      	add	r2, pc, #4	; (adr r2, 8000e54 <D3PPRE+0x18>)
 8000e50:	f852 f023 	ldr.w	pc, [r2, r3, lsl #2]
 8000e54:	08000e69 	.word	0x08000e69
 8000e58:	08000e8f 	.word	0x08000e8f
 8000e5c:	08000eb3 	.word	0x08000eb3
 8000e60:	08000ed7 	.word	0x08000ed7
 8000e64:	08000efb 	.word	0x08000efb
	{
	case 0 :
		RCC->D2CFGR &= ~(1U<<4);
 8000e68:	4b39      	ldr	r3, [pc, #228]	; (8000f50 <D3PPRE+0x114>)
 8000e6a:	69db      	ldr	r3, [r3, #28]
 8000e6c:	4a38      	ldr	r2, [pc, #224]	; (8000f50 <D3PPRE+0x114>)
 8000e6e:	f023 0310 	bic.w	r3, r3, #16
 8000e72:	61d3      	str	r3, [r2, #28]
		RCC->D2CFGR &= ~(1U<<5);
 8000e74:	4b36      	ldr	r3, [pc, #216]	; (8000f50 <D3PPRE+0x114>)
 8000e76:	69db      	ldr	r3, [r3, #28]
 8000e78:	4a35      	ldr	r2, [pc, #212]	; (8000f50 <D3PPRE+0x114>)
 8000e7a:	f023 0320 	bic.w	r3, r3, #32
 8000e7e:	61d3      	str	r3, [r2, #28]
		RCC->D2CFGR &= ~(1U<<6);
 8000e80:	4b33      	ldr	r3, [pc, #204]	; (8000f50 <D3PPRE+0x114>)
 8000e82:	69db      	ldr	r3, [r3, #28]
 8000e84:	4a32      	ldr	r2, [pc, #200]	; (8000f50 <D3PPRE+0x114>)
 8000e86:	f023 0340 	bic.w	r3, r3, #64	; 0x40
 8000e8a:	61d3      	str	r3, [r2, #28]
		break;
 8000e8c:	e05a      	b.n	8000f44 <D3PPRE+0x108>
	case 1 :
		RCC->D2CFGR &= ~(1U<<4);
 8000e8e:	4b30      	ldr	r3, [pc, #192]	; (8000f50 <D3PPRE+0x114>)
 8000e90:	69db      	ldr	r3, [r3, #28]
 8000e92:	4a2f      	ldr	r2, [pc, #188]	; (8000f50 <D3PPRE+0x114>)
 8000e94:	f023 0310 	bic.w	r3, r3, #16
 8000e98:	61d3      	str	r3, [r2, #28]
		RCC->D2CFGR &= ~(1U<<5);
 8000e9a:	4b2d      	ldr	r3, [pc, #180]	; (8000f50 <D3PPRE+0x114>)
 8000e9c:	69db      	ldr	r3, [r3, #28]
 8000e9e:	4a2c      	ldr	r2, [pc, #176]	; (8000f50 <D3PPRE+0x114>)
 8000ea0:	f023 0320 	bic.w	r3, r3, #32
 8000ea4:	61d3      	str	r3, [r2, #28]
		RCC->D2CFGR |= (1U<<6);
 8000ea6:	4b2a      	ldr	r3, [pc, #168]	; (8000f50 <D3PPRE+0x114>)
 8000ea8:	69db      	ldr	r3, [r3, #28]
 8000eaa:	4a29      	ldr	r2, [pc, #164]	; (8000f50 <D3PPRE+0x114>)
 8000eac:	f043 0340 	orr.w	r3, r3, #64	; 0x40
 8000eb0:	61d3      	str	r3, [r2, #28]
	case 2 :
		RCC->D2CFGR |= (1U<<4);
 8000eb2:	4b27      	ldr	r3, [pc, #156]	; (8000f50 <D3PPRE+0x114>)
 8000eb4:	69db      	ldr	r3, [r3, #28]
 8000eb6:	4a26      	ldr	r2, [pc, #152]	; (8000f50 <D3PPRE+0x114>)
 8000eb8:	f043 0310 	orr.w	r3, r3, #16
 8000ebc:	61d3      	str	r3, [r2, #28]
		RCC->D2CFGR &= ~(1U<<5);
 8000ebe:	4b24      	ldr	r3, [pc, #144]	; (8000f50 <D3PPRE+0x114>)
 8000ec0:	69db      	ldr	r3, [r3, #28]
 8000ec2:	4a23      	ldr	r2, [pc, #140]	; (8000f50 <D3PPRE+0x114>)
 8000ec4:	f023 0320 	bic.w	r3, r3, #32
 8000ec8:	61d3      	str	r3, [r2, #28]
		RCC->D2CFGR |= (1U<<6);
 8000eca:	4b21      	ldr	r3, [pc, #132]	; (8000f50 <D3PPRE+0x114>)
 8000ecc:	69db      	ldr	r3, [r3, #28]
 8000ece:	4a20      	ldr	r2, [pc, #128]	; (8000f50 <D3PPRE+0x114>)
 8000ed0:	f043 0340 	orr.w	r3, r3, #64	; 0x40
 8000ed4:	61d3      	str	r3, [r2, #28]
	case 3 :
		RCC->D2CFGR &= ~(1U<<4);
 8000ed6:	4b1e      	ldr	r3, [pc, #120]	; (8000f50 <D3PPRE+0x114>)
 8000ed8:	69db      	ldr	r3, [r3, #28]
 8000eda:	4a1d      	ldr	r2, [pc, #116]	; (8000f50 <D3PPRE+0x114>)
 8000edc:	f023 0310 	bic.w	r3, r3, #16
 8000ee0:	61d3      	str	r3, [r2, #28]
		RCC->D2CFGR |= (1U<<5);
 8000ee2:	4b1b      	ldr	r3, [pc, #108]	; (8000f50 <D3PPRE+0x114>)
 8000ee4:	69db      	ldr	r3, [r3, #28]
 8000ee6:	4a1a      	ldr	r2, [pc, #104]	; (8000f50 <D3PPRE+0x114>)
 8000ee8:	f043 0320 	orr.w	r3, r3, #32
 8000eec:	61d3      	str	r3, [r2, #28]
		RCC->D2CFGR |= (1U<<6);
 8000eee:	4b18      	ldr	r3, [pc, #96]	; (8000f50 <D3PPRE+0x114>)
 8000ef0:	69db      	ldr	r3, [r3, #28]
 8000ef2:	4a17      	ldr	r2, [pc, #92]	; (8000f50 <D3PPRE+0x114>)
 8000ef4:	f043 0340 	orr.w	r3, r3, #64	; 0x40
 8000ef8:	61d3      	str	r3, [r2, #28]
	case 4 :
		RCC->D2CFGR |= (1U<<4);
 8000efa:	4b15      	ldr	r3, [pc, #84]	; (8000f50 <D3PPRE+0x114>)
 8000efc:	69db      	ldr	r3, [r3, #28]
 8000efe:	4a14      	ldr	r2, [pc, #80]	; (8000f50 <D3PPRE+0x114>)
 8000f00:	f043 0310 	orr.w	r3, r3, #16
 8000f04:	61d3      	str	r3, [r2, #28]
		RCC->D2CFGR |= (1U<<5);
 8000f06:	4b12      	ldr	r3, [pc, #72]	; (8000f50 <D3PPRE+0x114>)
 8000f08:	69db      	ldr	r3, [r3, #28]
 8000f0a:	4a11      	ldr	r2, [pc, #68]	; (8000f50 <D3PPRE+0x114>)
 8000f0c:	f043 0320 	orr.w	r3, r3, #32
 8000f10:	61d3      	str	r3, [r2, #28]
		RCC->D2CFGR |= (1U<<6);
 8000f12:	4b0f      	ldr	r3, [pc, #60]	; (8000f50 <D3PPRE+0x114>)
 8000f14:	69db      	ldr	r3, [r3, #28]
 8000f16:	4a0e      	ldr	r2, [pc, #56]	; (8000f50 <D3PPRE+0x114>)
 8000f18:	f043 0340 	orr.w	r3, r3, #64	; 0x40
 8000f1c:	61d3      	str	r3, [r2, #28]
	default:
		RCC->D2CFGR &= ~(1U<<4);
 8000f1e:	4b0c      	ldr	r3, [pc, #48]	; (8000f50 <D3PPRE+0x114>)
 8000f20:	69db      	ldr	r3, [r3, #28]
 8000f22:	4a0b      	ldr	r2, [pc, #44]	; (8000f50 <D3PPRE+0x114>)
 8000f24:	f023 0310 	bic.w	r3, r3, #16
 8000f28:	61d3      	str	r3, [r2, #28]
		RCC->D2CFGR &= ~(1U<<5);
 8000f2a:	4b09      	ldr	r3, [pc, #36]	; (8000f50 <D3PPRE+0x114>)
 8000f2c:	69db      	ldr	r3, [r3, #28]
 8000f2e:	4a08      	ldr	r2, [pc, #32]	; (8000f50 <D3PPRE+0x114>)
 8000f30:	f023 0320 	bic.w	r3, r3, #32
 8000f34:	61d3      	str	r3, [r2, #28]
		RCC->D2CFGR &= ~(1U<<6);
 8000f36:	4b06      	ldr	r3, [pc, #24]	; (8000f50 <D3PPRE+0x114>)
 8000f38:	69db      	ldr	r3, [r3, #28]
 8000f3a:	4a05      	ldr	r2, [pc, #20]	; (8000f50 <D3PPRE+0x114>)
 8000f3c:	f023 0340 	bic.w	r3, r3, #64	; 0x40
 8000f40:	61d3      	str	r3, [r2, #28]
		break;
 8000f42:	bf00      	nop
	}
}
 8000f44:	bf00      	nop
 8000f46:	370c      	adds	r7, #12
 8000f48:	46bd      	mov	sp, r7
 8000f4a:	f85d 7b04 	ldr.w	r7, [sp], #4
 8000f4e:	4770      	bx	lr
 8000f50:	58024400 	.word	0x58024400

08000f54 <SysClockConfig>:
 * 		APB2 Timer Clocks: 240MHz
 * 		APB4 Peripheral Clocks: 120MHz
 * 		APB4 Timer Clocks: 240MHz
 */
void SysClockConfig(void)
{
 8000f54:	b580      	push	{r7, lr}
 8000f56:	af00      	add	r7, sp, #0
	RCC->CR |= HSEON; //Enable  the HSE Clock
 8000f58:	4b28      	ldr	r3, [pc, #160]	; (8000ffc <SysClockConfig+0xa8>)
 8000f5a:	681b      	ldr	r3, [r3, #0]
 8000f5c:	4a27      	ldr	r2, [pc, #156]	; (8000ffc <SysClockConfig+0xa8>)
 8000f5e:	f443 3380 	orr.w	r3, r3, #65536	; 0x10000
 8000f62:	6013      	str	r3, [r2, #0]
	while(!(RCC->CR & HSERDY)); //Wait until HSE is ready
 8000f64:	bf00      	nop
 8000f66:	4b25      	ldr	r3, [pc, #148]	; (8000ffc <SysClockConfig+0xa8>)
 8000f68:	681b      	ldr	r3, [r3, #0]
 8000f6a:	f403 3300 	and.w	r3, r3, #131072	; 0x20000
 8000f6e:	2b00      	cmp	r3, #0
 8000f70:	d0f9      	beq.n	8000f66 <SysClockConfig+0x12>
	//PLLSRC Source Mux
	PLLSRC_Select(2);
 8000f72:	2002      	movs	r0, #2
 8000f74:	f7ff f9de 	bl	8000334 <PLLSRC_Select>
	//DIVM1 PPL1
	DIVM1(1);
 8000f78:	2001      	movs	r0, #1
 8000f7a:	f7ff fa27 	bl	80003cc <DIVM1>
	PLL1DIVR(120, 1, 1, 1);
 8000f7e:	2301      	movs	r3, #1
 8000f80:	2201      	movs	r2, #1
 8000f82:	2101      	movs	r1, #1
 8000f84:	2078      	movs	r0, #120	; 0x78
 8000f86:	f7ff fa6d 	bl	8000464 <PLL1DIVR>
	input_frequency_range(2);
 8000f8a:	2002      	movs	r0, #2
 8000f8c:	f7ff fb3c 	bl	8000608 <input_frequency_range>
	PLL1VCOSEL(0);
 8000f90:	2000      	movs	r0, #0
 8000f92:	f7ff fb95 	bl	80006c0 <PLL1VCOSEL>
	enable_PLL1_OutputDividers();
 8000f96:	f7ff fbb1 	bl	80006fc <enable_PLL1_OutputDividers>
	enable_PLL1_FractionalDivider();
 8000f9a:	f7ff fbcb 	bl	8000734 <enable_PLL1_FractionalDivider>
	StartPLL1();
 8000f9e:	f7ff fbd9 	bl	8000754 <StartPLL1>
	D1CFGR_HPRE(1);
 8000fa2:	2001      	movs	r0, #1
 8000fa4:	f7ff fd10 	bl	80009c8 <D1CFGR_HPRE>
	D1CFGR_D1CPRE(0);
 8000fa8:	2000      	movs	r0, #0
 8000faa:	f7ff fbeb 	bl	8000784 <D1CFGR_D1CPRE>
	//*****
	  RCC-> CFGR &= ~(1U<<2); //0
 8000fae:	4b13      	ldr	r3, [pc, #76]	; (8000ffc <SysClockConfig+0xa8>)
 8000fb0:	691b      	ldr	r3, [r3, #16]
 8000fb2:	4a12      	ldr	r2, [pc, #72]	; (8000ffc <SysClockConfig+0xa8>)
 8000fb4:	f023 0304 	bic.w	r3, r3, #4
 8000fb8:	6113      	str	r3, [r2, #16]
	    RCC-> CFGR |= (1U<<1); //one
 8000fba:	4b10      	ldr	r3, [pc, #64]	; (8000ffc <SysClockConfig+0xa8>)
 8000fbc:	691b      	ldr	r3, [r3, #16]
 8000fbe:	4a0f      	ldr	r2, [pc, #60]	; (8000ffc <SysClockConfig+0xa8>)
 8000fc0:	f043 0302 	orr.w	r3, r3, #2
 8000fc4:	6113      	str	r3, [r2, #16]
	    RCC-> CFGR |= (1U<<0); //one
 8000fc6:	4b0d      	ldr	r3, [pc, #52]	; (8000ffc <SysClockConfig+0xa8>)
 8000fc8:	691b      	ldr	r3, [r3, #16]
 8000fca:	4a0c      	ldr	r2, [pc, #48]	; (8000ffc <SysClockConfig+0xa8>)
 8000fcc:	f043 0301 	orr.w	r3, r3, #1
 8000fd0:	6113      	str	r3, [r2, #16]

	    while (!(RCC-> CFGR & (1U<<0)));
 8000fd2:	bf00      	nop
 8000fd4:	4b09      	ldr	r3, [pc, #36]	; (8000ffc <SysClockConfig+0xa8>)
 8000fd6:	691b      	ldr	r3, [r3, #16]
 8000fd8:	f003 0301 	and.w	r3, r3, #1
 8000fdc:	2b00      	cmp	r3, #0
 8000fde:	d0f9      	beq.n	8000fd4 <SysClockConfig+0x80>
	    //*********
	D1PPRE(1);
 8000fe0:	2001      	movs	r0, #1
 8000fe2:	f7ff fe13 	bl	8000c0c <D1PPRE>
	D2PPRE1(1);
 8000fe6:	2001      	movs	r0, #1
 8000fe8:	f7ff fe9c 	bl	8000d24 <D2PPRE1>
	D2PPRE1(1);
 8000fec:	2001      	movs	r0, #1
 8000fee:	f7ff fe99 	bl	8000d24 <D2PPRE1>
	D3PPRE(1);
 8000ff2:	2001      	movs	r0, #1
 8000ff4:	f7ff ff22 	bl	8000e3c <D3PPRE>
}
 8000ff8:	bf00      	nop
 8000ffa:	bd80      	pop	{r7, pc}
 8000ffc:	58024400 	.word	0x58024400

08001000 <get_SYSCLK>:
unsigned long  get_SYSCLK()
{
 8001000:	b480      	push	{r7}
 8001002:	af00      	add	r7, sp, #0
	return 8000000*120/2;
 8001004:	4b02      	ldr	r3, [pc, #8]	; (8001010 <get_SYSCLK+0x10>)
}
 8001006:	4618      	mov	r0, r3
 8001008:	46bd      	mov	sp, r7
 800100a:	f85d 7b04 	ldr.w	r7, [sp], #4
 800100e:	4770      	bx	lr
 8001010:	1c9c3800 	.word	0x1c9c3800

08001014 <enablePORT>:
#define GPIOJEN (1U<<9)
#define GPIOKEN (1U<<10)


void enablePORT(GPIO_TypeDef* Port)
{
 8001014:	b480      	push	{r7}
 8001016:	b083      	sub	sp, #12
 8001018:	af00      	add	r7, sp, #0
 800101a:	6078      	str	r0, [r7, #4]
	if (Port==GPIOA) {
 800101c:	687b      	ldr	r3, [r7, #4]
 800101e:	4a75      	ldr	r2, [pc, #468]	; (80011f4 <enablePORT+0x1e0>)
 8001020:	4293      	cmp	r3, r2
 8001022:	d110      	bne.n	8001046 <enablePORT+0x32>
		RCC->AHB4ENR |= GPIOAEN;
 8001024:	4b74      	ldr	r3, [pc, #464]	; (80011f8 <enablePORT+0x1e4>)
 8001026:	f8d3 30e0 	ldr.w	r3, [r3, #224]	; 0xe0
 800102a:	4a73      	ldr	r2, [pc, #460]	; (80011f8 <enablePORT+0x1e4>)
 800102c:	f043 0301 	orr.w	r3, r3, #1
 8001030:	f8c2 30e0 	str.w	r3, [r2, #224]	; 0xe0
		//Making sure bit is changed
		while(!(RCC->AHB4ENR & GPIOAEN));
 8001034:	bf00      	nop
 8001036:	4b70      	ldr	r3, [pc, #448]	; (80011f8 <enablePORT+0x1e4>)
 8001038:	f8d3 30e0 	ldr.w	r3, [r3, #224]	; 0xe0
 800103c:	f003 0301 	and.w	r3, r3, #1
 8001040:	2b00      	cmp	r3, #0
 8001042:	d0f8      	beq.n	8001036 <enablePORT+0x22>
		while(!(RCC->AHB4ENR & GPIOKEN));

	}else
	{
	}
}
 8001044:	e0d0      	b.n	80011e8 <enablePORT+0x1d4>
	} else if(Port==GPIOB) {
 8001046:	687b      	ldr	r3, [r7, #4]
 8001048:	4a6c      	ldr	r2, [pc, #432]	; (80011fc <enablePORT+0x1e8>)
 800104a:	4293      	cmp	r3, r2
 800104c:	d110      	bne.n	8001070 <enablePORT+0x5c>
		RCC->AHB4ENR |= GPIOBEN;
 800104e:	4b6a      	ldr	r3, [pc, #424]	; (80011f8 <enablePORT+0x1e4>)
 8001050:	f8d3 30e0 	ldr.w	r3, [r3, #224]	; 0xe0
 8001054:	4a68      	ldr	r2, [pc, #416]	; (80011f8 <enablePORT+0x1e4>)
 8001056:	f043 0302 	orr.w	r3, r3, #2
 800105a:	f8c2 30e0 	str.w	r3, [r2, #224]	; 0xe0
		while(!(RCC->AHB4ENR & GPIOBEN));
 800105e:	bf00      	nop
 8001060:	4b65      	ldr	r3, [pc, #404]	; (80011f8 <enablePORT+0x1e4>)
 8001062:	f8d3 30e0 	ldr.w	r3, [r3, #224]	; 0xe0
 8001066:	f003 0302 	and.w	r3, r3, #2
 800106a:	2b00      	cmp	r3, #0
 800106c:	d0f8      	beq.n	8001060 <enablePORT+0x4c>
}
 800106e:	e0bb      	b.n	80011e8 <enablePORT+0x1d4>
	}else if(Port==GPIOC) {
 8001070:	687b      	ldr	r3, [r7, #4]
 8001072:	4a63      	ldr	r2, [pc, #396]	; (8001200 <enablePORT+0x1ec>)
 8001074:	4293      	cmp	r3, r2
 8001076:	d110      	bne.n	800109a <enablePORT+0x86>
		RCC->AHB4ENR |= GPIOCEN;
 8001078:	4b5f      	ldr	r3, [pc, #380]	; (80011f8 <enablePORT+0x1e4>)
 800107a:	f8d3 30e0 	ldr.w	r3, [r3, #224]	; 0xe0
 800107e:	4a5e      	ldr	r2, [pc, #376]	; (80011f8 <enablePORT+0x1e4>)
 8001080:	f043 0304 	orr.w	r3, r3, #4
 8001084:	f8c2 30e0 	str.w	r3, [r2, #224]	; 0xe0
		while(!(RCC->AHB4ENR & GPIOCEN));
 8001088:	bf00      	nop
 800108a:	4b5b      	ldr	r3, [pc, #364]	; (80011f8 <enablePORT+0x1e4>)
 800108c:	f8d3 30e0 	ldr.w	r3, [r3, #224]	; 0xe0
 8001090:	f003 0304 	and.w	r3, r3, #4
 8001094:	2b00      	cmp	r3, #0
 8001096:	d0f8      	beq.n	800108a <enablePORT+0x76>
}
 8001098:	e0a6      	b.n	80011e8 <enablePORT+0x1d4>
	}else if(Port==GPIOD) {
 800109a:	687b      	ldr	r3, [r7, #4]
 800109c:	4a59      	ldr	r2, [pc, #356]	; (8001204 <enablePORT+0x1f0>)
 800109e:	4293      	cmp	r3, r2
 80010a0:	d110      	bne.n	80010c4 <enablePORT+0xb0>
		RCC->AHB4ENR |= GPIODEN;
 80010a2:	4b55      	ldr	r3, [pc, #340]	; (80011f8 <enablePORT+0x1e4>)
 80010a4:	f8d3 30e0 	ldr.w	r3, [r3, #224]	; 0xe0
 80010a8:	4a53      	ldr	r2, [pc, #332]	; (80011f8 <enablePORT+0x1e4>)
 80010aa:	f043 0308 	orr.w	r3, r3, #8
 80010ae:	f8c2 30e0 	str.w	r3, [r2, #224]	; 0xe0
		while(!(RCC->AHB4ENR & GPIODEN));
 80010b2:	bf00      	nop
 80010b4:	4b50      	ldr	r3, [pc, #320]	; (80011f8 <enablePORT+0x1e4>)
 80010b6:	f8d3 30e0 	ldr.w	r3, [r3, #224]	; 0xe0
 80010ba:	f003 0308 	and.w	r3, r3, #8
 80010be:	2b00      	cmp	r3, #0
 80010c0:	d0f8      	beq.n	80010b4 <enablePORT+0xa0>
}
 80010c2:	e091      	b.n	80011e8 <enablePORT+0x1d4>
	}else if(Port==GPIOE) {
 80010c4:	687b      	ldr	r3, [r7, #4]
 80010c6:	4a50      	ldr	r2, [pc, #320]	; (8001208 <enablePORT+0x1f4>)
 80010c8:	4293      	cmp	r3, r2
 80010ca:	d110      	bne.n	80010ee <enablePORT+0xda>
		RCC->AHB4ENR |= GPIOEEN;
 80010cc:	4b4a      	ldr	r3, [pc, #296]	; (80011f8 <enablePORT+0x1e4>)
 80010ce:	f8d3 30e0 	ldr.w	r3, [r3, #224]	; 0xe0
 80010d2:	4a49      	ldr	r2, [pc, #292]	; (80011f8 <enablePORT+0x1e4>)
 80010d4:	f043 0310 	orr.w	r3, r3, #16
 80010d8:	f8c2 30e0 	str.w	r3, [r2, #224]	; 0xe0
		while(!(RCC->AHB4ENR & GPIOEEN));
 80010dc:	bf00      	nop
 80010de:	4b46      	ldr	r3, [pc, #280]	; (80011f8 <enablePORT+0x1e4>)
 80010e0:	f8d3 30e0 	ldr.w	r3, [r3, #224]	; 0xe0
 80010e4:	f003 0310 	and.w	r3, r3, #16
 80010e8:	2b00      	cmp	r3, #0
 80010ea:	d0f8      	beq.n	80010de <enablePORT+0xca>
}
 80010ec:	e07c      	b.n	80011e8 <enablePORT+0x1d4>
	}else if(Port==GPIOF) {
 80010ee:	687b      	ldr	r3, [r7, #4]
 80010f0:	4a46      	ldr	r2, [pc, #280]	; (800120c <enablePORT+0x1f8>)
 80010f2:	4293      	cmp	r3, r2
 80010f4:	d110      	bne.n	8001118 <enablePORT+0x104>
		RCC->AHB4ENR |= GPIOFEN;
 80010f6:	4b40      	ldr	r3, [pc, #256]	; (80011f8 <enablePORT+0x1e4>)
 80010f8:	f8d3 30e0 	ldr.w	r3, [r3, #224]	; 0xe0
 80010fc:	4a3e      	ldr	r2, [pc, #248]	; (80011f8 <enablePORT+0x1e4>)
 80010fe:	f043 0320 	orr.w	r3, r3, #32
 8001102:	f8c2 30e0 	str.w	r3, [r2, #224]	; 0xe0
		while(!(RCC->AHB4ENR & GPIOFEN));
 8001106:	bf00      	nop
 8001108:	4b3b      	ldr	r3, [pc, #236]	; (80011f8 <enablePORT+0x1e4>)
 800110a:	f8d3 30e0 	ldr.w	r3, [r3, #224]	; 0xe0
 800110e:	f003 0320 	and.w	r3, r3, #32
 8001112:	2b00      	cmp	r3, #0
 8001114:	d0f8      	beq.n	8001108 <enablePORT+0xf4>
}
 8001116:	e067      	b.n	80011e8 <enablePORT+0x1d4>
	}else if(Port==GPIOG) {
 8001118:	687b      	ldr	r3, [r7, #4]
 800111a:	4a3d      	ldr	r2, [pc, #244]	; (8001210 <enablePORT+0x1fc>)
 800111c:	4293      	cmp	r3, r2
 800111e:	d110      	bne.n	8001142 <enablePORT+0x12e>
		RCC->AHB4ENR |= GPIOGEN;
 8001120:	4b35      	ldr	r3, [pc, #212]	; (80011f8 <enablePORT+0x1e4>)
 8001122:	f8d3 30e0 	ldr.w	r3, [r3, #224]	; 0xe0
 8001126:	4a34      	ldr	r2, [pc, #208]	; (80011f8 <enablePORT+0x1e4>)
 8001128:	f043 0340 	orr.w	r3, r3, #64	; 0x40
 800112c:	f8c2 30e0 	str.w	r3, [r2, #224]	; 0xe0
		while(!(RCC->AHB4ENR & GPIOGEN));
 8001130:	bf00      	nop
 8001132:	4b31      	ldr	r3, [pc, #196]	; (80011f8 <enablePORT+0x1e4>)
 8001134:	f8d3 30e0 	ldr.w	r3, [r3, #224]	; 0xe0
 8001138:	f003 0340 	and.w	r3, r3, #64	; 0x40
 800113c:	2b00      	cmp	r3, #0
 800113e:	d0f8      	beq.n	8001132 <enablePORT+0x11e>
}
 8001140:	e052      	b.n	80011e8 <enablePORT+0x1d4>
	}else if(Port==GPIOH) {
 8001142:	687b      	ldr	r3, [r7, #4]
 8001144:	4a33      	ldr	r2, [pc, #204]	; (8001214 <enablePORT+0x200>)
 8001146:	4293      	cmp	r3, r2
 8001148:	d110      	bne.n	800116c <enablePORT+0x158>
		RCC->AHB4ENR |= GPIOHEN;
 800114a:	4b2b      	ldr	r3, [pc, #172]	; (80011f8 <enablePORT+0x1e4>)
 800114c:	f8d3 30e0 	ldr.w	r3, [r3, #224]	; 0xe0
 8001150:	4a29      	ldr	r2, [pc, #164]	; (80011f8 <enablePORT+0x1e4>)
 8001152:	f043 0380 	orr.w	r3, r3, #128	; 0x80
 8001156:	f8c2 30e0 	str.w	r3, [r2, #224]	; 0xe0
		while(!(RCC->AHB4ENR & GPIOHEN));
 800115a:	bf00      	nop
 800115c:	4b26      	ldr	r3, [pc, #152]	; (80011f8 <enablePORT+0x1e4>)
 800115e:	f8d3 30e0 	ldr.w	r3, [r3, #224]	; 0xe0
 8001162:	f003 0380 	and.w	r3, r3, #128	; 0x80
 8001166:	2b00      	cmp	r3, #0
 8001168:	d0f8      	beq.n	800115c <enablePORT+0x148>
}
 800116a:	e03d      	b.n	80011e8 <enablePORT+0x1d4>
	}else if(Port==GPIOI) {
 800116c:	687b      	ldr	r3, [r7, #4]
 800116e:	4a2a      	ldr	r2, [pc, #168]	; (8001218 <enablePORT+0x204>)
 8001170:	4293      	cmp	r3, r2
 8001172:	d110      	bne.n	8001196 <enablePORT+0x182>
		RCC->AHB4ENR |= GPIOIEN;
 8001174:	4b20      	ldr	r3, [pc, #128]	; (80011f8 <enablePORT+0x1e4>)
 8001176:	f8d3 30e0 	ldr.w	r3, [r3, #224]	; 0xe0
 800117a:	4a1f      	ldr	r2, [pc, #124]	; (80011f8 <enablePORT+0x1e4>)
 800117c:	f443 7380 	orr.w	r3, r3, #256	; 0x100
 8001180:	f8c2 30e0 	str.w	r3, [r2, #224]	; 0xe0
		while(!(RCC->AHB4ENR & GPIOIEN));
 8001184:	bf00      	nop
 8001186:	4b1c      	ldr	r3, [pc, #112]	; (80011f8 <enablePORT+0x1e4>)
 8001188:	f8d3 30e0 	ldr.w	r3, [r3, #224]	; 0xe0
 800118c:	f403 7380 	and.w	r3, r3, #256	; 0x100
 8001190:	2b00      	cmp	r3, #0
 8001192:	d0f8      	beq.n	8001186 <enablePORT+0x172>
}
 8001194:	e028      	b.n	80011e8 <enablePORT+0x1d4>
	}else if(Port==GPIOJ) {
 8001196:	687b      	ldr	r3, [r7, #4]
 8001198:	4a20      	ldr	r2, [pc, #128]	; (800121c <enablePORT+0x208>)
 800119a:	4293      	cmp	r3, r2
 800119c:	d110      	bne.n	80011c0 <enablePORT+0x1ac>
		RCC->AHB4ENR |= GPIOJEN;
 800119e:	4b16      	ldr	r3, [pc, #88]	; (80011f8 <enablePORT+0x1e4>)
 80011a0:	f8d3 30e0 	ldr.w	r3, [r3, #224]	; 0xe0
 80011a4:	4a14      	ldr	r2, [pc, #80]	; (80011f8 <enablePORT+0x1e4>)
 80011a6:	f443 7300 	orr.w	r3, r3, #512	; 0x200
 80011aa:	f8c2 30e0 	str.w	r3, [r2, #224]	; 0xe0
		while(!(RCC->AHB4ENR & GPIOJEN));
 80011ae:	bf00      	nop
 80011b0:	4b11      	ldr	r3, [pc, #68]	; (80011f8 <enablePORT+0x1e4>)
 80011b2:	f8d3 30e0 	ldr.w	r3, [r3, #224]	; 0xe0
 80011b6:	f403 7300 	and.w	r3, r3, #512	; 0x200
 80011ba:	2b00      	cmp	r3, #0
 80011bc:	d0f8      	beq.n	80011b0 <enablePORT+0x19c>
}
 80011be:	e013      	b.n	80011e8 <enablePORT+0x1d4>
	}else if(Port==GPIOK) {
 80011c0:	687b      	ldr	r3, [r7, #4]
 80011c2:	4a17      	ldr	r2, [pc, #92]	; (8001220 <enablePORT+0x20c>)
 80011c4:	4293      	cmp	r3, r2
 80011c6:	d10f      	bne.n	80011e8 <enablePORT+0x1d4>
		RCC->AHB4ENR |= GPIOKEN;
 80011c8:	4b0b      	ldr	r3, [pc, #44]	; (80011f8 <enablePORT+0x1e4>)
 80011ca:	f8d3 30e0 	ldr.w	r3, [r3, #224]	; 0xe0
 80011ce:	4a0a      	ldr	r2, [pc, #40]	; (80011f8 <enablePORT+0x1e4>)
 80011d0:	f443 6380 	orr.w	r3, r3, #1024	; 0x400
 80011d4:	f8c2 30e0 	str.w	r3, [r2, #224]	; 0xe0
		while(!(RCC->AHB4ENR & GPIOKEN));
 80011d8:	bf00      	nop
 80011da:	4b07      	ldr	r3, [pc, #28]	; (80011f8 <enablePORT+0x1e4>)
 80011dc:	f8d3 30e0 	ldr.w	r3, [r3, #224]	; 0xe0
 80011e0:	f403 6380 	and.w	r3, r3, #1024	; 0x400
 80011e4:	2b00      	cmp	r3, #0
 80011e6:	d0f8      	beq.n	80011da <enablePORT+0x1c6>
}
 80011e8:	bf00      	nop
 80011ea:	370c      	adds	r7, #12
 80011ec:	46bd      	mov	sp, r7
 80011ee:	f85d 7b04 	ldr.w	r7, [sp], #4
 80011f2:	4770      	bx	lr
 80011f4:	58020000 	.word	0x58020000
 80011f8:	58024400 	.word	0x58024400
 80011fc:	58020400 	.word	0x58020400
 8001200:	58020800 	.word	0x58020800
 8001204:	58020c00 	.word	0x58020c00
 8001208:	58021000 	.word	0x58021000
 800120c:	58021400 	.word	0x58021400
 8001210:	58021800 	.word	0x58021800
 8001214:	58021c00 	.word	0x58021c00
 8001218:	58022000 	.word	0x58022000
 800121c:	58022400 	.word	0x58022400
 8001220:	58022800 	.word	0x58022800

08001224 <Set_GPIO_MODER>:
 * 2: Alternate function mode
 * 3: Analog mode (reset state)
 * Note : If type argument is entered wrong pin configuration is becomes Input mode
 * */
void Set_GPIO_MODER(GPIO_TypeDef* Port,short Pin,short type)
{
 8001224:	b480      	push	{r7}
 8001226:	b085      	sub	sp, #20
 8001228:	af00      	add	r7, sp, #0
 800122a:	6078      	str	r0, [r7, #4]
 800122c:	460b      	mov	r3, r1
 800122e:	807b      	strh	r3, [r7, #2]
 8001230:	4613      	mov	r3, r2
 8001232:	803b      	strh	r3, [r7, #0]
	bool bit_0, bit_1 ;
	switch(type)
 8001234:	f9b7 3000 	ldrsh.w	r3, [r7]
 8001238:	2b03      	cmp	r3, #3
 800123a:	d81f      	bhi.n	800127c <Set_GPIO_MODER+0x58>
 800123c:	a201      	add	r2, pc, #4	; (adr r2, 8001244 <Set_GPIO_MODER+0x20>)
 800123e:	f852 f023 	ldr.w	pc, [r2, r3, lsl #2]
 8001242:	bf00      	nop
 8001244:	08001255 	.word	0x08001255
 8001248:	0800125f 	.word	0x0800125f
 800124c:	08001269 	.word	0x08001269
 8001250:	08001273 	.word	0x08001273
	{
	case 0 :
		bit_0 = false ;
 8001254:	2300      	movs	r3, #0
 8001256:	73fb      	strb	r3, [r7, #15]
		bit_1 = false ;
 8001258:	2300      	movs	r3, #0
 800125a:	73bb      	strb	r3, [r7, #14]
		break ;
 800125c:	e012      	b.n	8001284 <Set_GPIO_MODER+0x60>
	case 1 :
		bit_0 =  true ;
 800125e:	2301      	movs	r3, #1
 8001260:	73fb      	strb	r3, [r7, #15]
		bit_1 = false ;
 8001262:	2300      	movs	r3, #0
 8001264:	73bb      	strb	r3, [r7, #14]
		break;
 8001266:	e00d      	b.n	8001284 <Set_GPIO_MODER+0x60>
	case 2 :
		bit_0 = false ;
 8001268:	2300      	movs	r3, #0
 800126a:	73fb      	strb	r3, [r7, #15]
		bit_1 = true  ;
 800126c:	2301      	movs	r3, #1
 800126e:	73bb      	strb	r3, [r7, #14]
		break;
 8001270:	e008      	b.n	8001284 <Set_GPIO_MODER+0x60>
	case 3 :
		bit_0 = true ;
 8001272:	2301      	movs	r3, #1
 8001274:	73fb      	strb	r3, [r7, #15]
		bit_1 = true ;
 8001276:	2301      	movs	r3, #1
 8001278:	73bb      	strb	r3, [r7, #14]
		break;
 800127a:	e003      	b.n	8001284 <Set_GPIO_MODER+0x60>
	default:
		bit_0 = false;
 800127c:	2300      	movs	r3, #0
 800127e:	73fb      	strb	r3, [r7, #15]
		bit_1 = false;
 8001280:	2300      	movs	r3, #0
 8001282:	73bb      	strb	r3, [r7, #14]
	}
	if(bit_0)
 8001284:	7bfb      	ldrb	r3, [r7, #15]
 8001286:	2b00      	cmp	r3, #0
 8001288:	d00b      	beq.n	80012a2 <Set_GPIO_MODER+0x7e>
	{
		Port->MODER |= (1U<<(Pin*2));
 800128a:	687b      	ldr	r3, [r7, #4]
 800128c:	681a      	ldr	r2, [r3, #0]
 800128e:	f9b7 3002 	ldrsh.w	r3, [r7, #2]
 8001292:	005b      	lsls	r3, r3, #1
 8001294:	2101      	movs	r1, #1
 8001296:	fa01 f303 	lsl.w	r3, r1, r3
 800129a:	431a      	orrs	r2, r3
 800129c:	687b      	ldr	r3, [r7, #4]
 800129e:	601a      	str	r2, [r3, #0]
 80012a0:	e00b      	b.n	80012ba <Set_GPIO_MODER+0x96>
	}else
	{
		Port->MODER &= ~(1U<<((Pin*2)));
 80012a2:	687b      	ldr	r3, [r7, #4]
 80012a4:	681a      	ldr	r2, [r3, #0]
 80012a6:	f9b7 3002 	ldrsh.w	r3, [r7, #2]
 80012aa:	005b      	lsls	r3, r3, #1
 80012ac:	2101      	movs	r1, #1
 80012ae:	fa01 f303 	lsl.w	r3, r1, r3
 80012b2:	43db      	mvns	r3, r3
 80012b4:	401a      	ands	r2, r3
 80012b6:	687b      	ldr	r3, [r7, #4]
 80012b8:	601a      	str	r2, [r3, #0]
	}
	if(bit_1)
 80012ba:	7bbb      	ldrb	r3, [r7, #14]
 80012bc:	2b00      	cmp	r3, #0
 80012be:	d00c      	beq.n	80012da <Set_GPIO_MODER+0xb6>
	{
		Port->MODER |= (1U<<((Pin*2)+1));
 80012c0:	687b      	ldr	r3, [r7, #4]
 80012c2:	681a      	ldr	r2, [r3, #0]
 80012c4:	f9b7 3002 	ldrsh.w	r3, [r7, #2]
 80012c8:	005b      	lsls	r3, r3, #1
 80012ca:	3301      	adds	r3, #1
 80012cc:	2101      	movs	r1, #1
 80012ce:	fa01 f303 	lsl.w	r3, r1, r3
 80012d2:	431a      	orrs	r2, r3
 80012d4:	687b      	ldr	r3, [r7, #4]
 80012d6:	601a      	str	r2, [r3, #0]
	}else
	{
		Port->MODER &= ~(1U<<((Pin*2)+1));
	}
}
 80012d8:	e00c      	b.n	80012f4 <Set_GPIO_MODER+0xd0>
		Port->MODER &= ~(1U<<((Pin*2)+1));
 80012da:	687b      	ldr	r3, [r7, #4]
 80012dc:	681a      	ldr	r2, [r3, #0]
 80012de:	f9b7 3002 	ldrsh.w	r3, [r7, #2]
 80012e2:	005b      	lsls	r3, r3, #1
 80012e4:	3301      	adds	r3, #1
 80012e6:	2101      	movs	r1, #1
 80012e8:	fa01 f303 	lsl.w	r3, r1, r3
 80012ec:	43db      	mvns	r3, r3
 80012ee:	401a      	ands	r2, r3
 80012f0:	687b      	ldr	r3, [r7, #4]
 80012f2:	601a      	str	r2, [r3, #0]
}
 80012f4:	bf00      	nop
 80012f6:	3714      	adds	r7, #20
 80012f8:	46bd      	mov	sp, r7
 80012fa:	f85d 7b04 	ldr.w	r7, [sp], #4
 80012fe:	4770      	bx	lr

08001300 <Set_GPIO_BSRR>:
 * isReset Type : boolean{true(1), false(0)}
 * 0: No action on the corresponding ODRx bit
 * 1: Resets/Sets the corresponding ODRx bit
 */
void Set_GPIO_BSRR(GPIO_TypeDef* Port,short pin, bool isItReset)
{
 8001300:	b480      	push	{r7}
 8001302:	b083      	sub	sp, #12
 8001304:	af00      	add	r7, sp, #0
 8001306:	6078      	str	r0, [r7, #4]
 8001308:	460b      	mov	r3, r1
 800130a:	807b      	strh	r3, [r7, #2]
 800130c:	4613      	mov	r3, r2
 800130e:	707b      	strb	r3, [r7, #1]
	if(isItReset)
 8001310:	787b      	ldrb	r3, [r7, #1]
 8001312:	2b00      	cmp	r3, #0
 8001314:	d00b      	beq.n	800132e <Set_GPIO_BSRR+0x2e>
	{
		Port->BSRR |= (1U<<(pin+16));
 8001316:	687b      	ldr	r3, [r7, #4]
 8001318:	699a      	ldr	r2, [r3, #24]
 800131a:	f9b7 3002 	ldrsh.w	r3, [r7, #2]
 800131e:	3310      	adds	r3, #16
 8001320:	2101      	movs	r1, #1
 8001322:	fa01 f303 	lsl.w	r3, r1, r3
 8001326:	431a      	orrs	r2, r3
 8001328:	687b      	ldr	r3, [r7, #4]
 800132a:	619a      	str	r2, [r3, #24]
	}else
	{
		Port->BSRR |= (1U<<(pin));
	}
}
 800132c:	e009      	b.n	8001342 <Set_GPIO_BSRR+0x42>
		Port->BSRR |= (1U<<(pin));
 800132e:	687b      	ldr	r3, [r7, #4]
 8001330:	699a      	ldr	r2, [r3, #24]
 8001332:	f9b7 3002 	ldrsh.w	r3, [r7, #2]
 8001336:	2101      	movs	r1, #1
 8001338:	fa01 f303 	lsl.w	r3, r1, r3
 800133c:	431a      	orrs	r2, r3
 800133e:	687b      	ldr	r3, [r7, #4]
 8001340:	619a      	str	r2, [r3, #24]
}
 8001342:	bf00      	nop
 8001344:	370c      	adds	r7, #12
 8001346:	46bd      	mov	sp, r7
 8001348:	f85d 7b04 	ldr.w	r7, [sp], #4
 800134c:	4770      	bx	lr
	...

08001350 <systickDelayMs>:
#define CTRL_CLKSRC		 (1U<<2)
#define CTRL_COUNTFLAG	 (1U<<16)
#define SYSTICK_LOAD_VAL (get_SYSCLK()/1000)
//#define SYSTICK_LOAD_VAL (64000000/1000)
void systickDelayMs(int delay)
{
 8001350:	b580      	push	{r7, lr}
 8001352:	b084      	sub	sp, #16
 8001354:	af00      	add	r7, sp, #0
 8001356:	6078      	str	r0, [r7, #4]
	/*Configure systick*/
	/*Reload with number of clocks per millisecond*/
	SysTick->LOAD =SYSTICK_LOAD_VAL;
 8001358:	f7ff fe52 	bl	8001000 <get_SYSCLK>
 800135c:	4603      	mov	r3, r0
 800135e:	4a13      	ldr	r2, [pc, #76]	; (80013ac <systickDelayMs+0x5c>)
 8001360:	fb82 1203 	smull	r1, r2, r2, r3
 8001364:	1192      	asrs	r2, r2, #6
 8001366:	17db      	asrs	r3, r3, #31
 8001368:	1ad2      	subs	r2, r2, r3
 800136a:	4b11      	ldr	r3, [pc, #68]	; (80013b0 <systickDelayMs+0x60>)
 800136c:	605a      	str	r2, [r3, #4]
	/*Clear systick current value register*/
	SysTick->VAL = 0 ;
 800136e:	4b10      	ldr	r3, [pc, #64]	; (80013b0 <systickDelayMs+0x60>)
 8001370:	2200      	movs	r2, #0
 8001372:	609a      	str	r2, [r3, #8]
	/*Enable systick and select clk src*/
	SysTick->CTRL = CTRL_ENABLE | CTRL_CLKSRC;
 8001374:	4b0e      	ldr	r3, [pc, #56]	; (80013b0 <systickDelayMs+0x60>)
 8001376:	2205      	movs	r2, #5
 8001378:	601a      	str	r2, [r3, #0]

	for(int i = 0 ; i<delay ; i++)
 800137a:	2300      	movs	r3, #0
 800137c:	60fb      	str	r3, [r7, #12]
 800137e:	e009      	b.n	8001394 <systickDelayMs+0x44>
	{
		//Wait until CountFlag is set
		while((SysTick->CTRL & CTRL_COUNTFLAG) == 0 );
 8001380:	bf00      	nop
 8001382:	4b0b      	ldr	r3, [pc, #44]	; (80013b0 <systickDelayMs+0x60>)
 8001384:	681b      	ldr	r3, [r3, #0]
 8001386:	f403 3380 	and.w	r3, r3, #65536	; 0x10000
 800138a:	2b00      	cmp	r3, #0
 800138c:	d0f9      	beq.n	8001382 <systickDelayMs+0x32>
	for(int i = 0 ; i<delay ; i++)
 800138e:	68fb      	ldr	r3, [r7, #12]
 8001390:	3301      	adds	r3, #1
 8001392:	60fb      	str	r3, [r7, #12]
 8001394:	68fa      	ldr	r2, [r7, #12]
 8001396:	687b      	ldr	r3, [r7, #4]
 8001398:	429a      	cmp	r2, r3
 800139a:	dbf1      	blt.n	8001380 <systickDelayMs+0x30>
	}
	SysTick->CTRL = 0 ;
 800139c:	4b04      	ldr	r3, [pc, #16]	; (80013b0 <systickDelayMs+0x60>)
 800139e:	2200      	movs	r2, #0
 80013a0:	601a      	str	r2, [r3, #0]
}
 80013a2:	bf00      	nop
 80013a4:	3710      	adds	r7, #16
 80013a6:	46bd      	mov	sp, r7
 80013a8:	bd80      	pop	{r7, pc}
 80013aa:	bf00      	nop
 80013ac:	10624dd3 	.word	0x10624dd3
 80013b0:	e000e010 	.word	0xe000e010

080013b4 <ld1_init>:
#include <User_led.h>
#include "stm32h745xx.h"
#include <stdbool.h>

void ld1_init(void)
{
 80013b4:	b580      	push	{r7, lr}
 80013b6:	af00      	add	r7, sp, #0
	enablePORT(GPIOB);
 80013b8:	4804      	ldr	r0, [pc, #16]	; (80013cc <ld1_init+0x18>)
 80013ba:	f7ff fe2b 	bl	8001014 <enablePORT>
	Set_GPIO_MODER(GPIOB, 0,1);
 80013be:	2201      	movs	r2, #1
 80013c0:	2100      	movs	r1, #0
 80013c2:	4802      	ldr	r0, [pc, #8]	; (80013cc <ld1_init+0x18>)
 80013c4:	f7ff ff2e 	bl	8001224 <Set_GPIO_MODER>
}
 80013c8:	bf00      	nop
 80013ca:	bd80      	pop	{r7, pc}
 80013cc:	58020400 	.word	0x58020400

080013d0 <ld2_init>:
void ld2_init(void)
{
 80013d0:	b580      	push	{r7, lr}
 80013d2:	af00      	add	r7, sp, #0
	enablePORT(GPIOE);
 80013d4:	4804      	ldr	r0, [pc, #16]	; (80013e8 <ld2_init+0x18>)
 80013d6:	f7ff fe1d 	bl	8001014 <enablePORT>
	Set_GPIO_MODER(GPIOE, 1, 1);
 80013da:	2201      	movs	r2, #1
 80013dc:	2101      	movs	r1, #1
 80013de:	4802      	ldr	r0, [pc, #8]	; (80013e8 <ld2_init+0x18>)
 80013e0:	f7ff ff20 	bl	8001224 <Set_GPIO_MODER>
}
 80013e4:	bf00      	nop
 80013e6:	bd80      	pop	{r7, pc}
 80013e8:	58021000 	.word	0x58021000

080013ec <ld3_init>:
void ld3_init(void)
{
 80013ec:	b580      	push	{r7, lr}
 80013ee:	af00      	add	r7, sp, #0
	enablePORT(GPIOB);
 80013f0:	4804      	ldr	r0, [pc, #16]	; (8001404 <ld3_init+0x18>)
 80013f2:	f7ff fe0f 	bl	8001014 <enablePORT>
	Set_GPIO_MODER(GPIOB, 14, 1);
 80013f6:	2201      	movs	r2, #1
 80013f8:	210e      	movs	r1, #14
 80013fa:	4802      	ldr	r0, [pc, #8]	; (8001404 <ld3_init+0x18>)
 80013fc:	f7ff ff12 	bl	8001224 <Set_GPIO_MODER>
}
 8001400:	bf00      	nop
 8001402:	bd80      	pop	{r7, pc}
 8001404:	58020400 	.word	0x58020400

08001408 <ld1_on>:
void ld1_on(void)
{
 8001408:	b580      	push	{r7, lr}
 800140a:	af00      	add	r7, sp, #0
	Set_GPIO_BSRR(GPIOB, 0, false);
 800140c:	2200      	movs	r2, #0
 800140e:	2100      	movs	r1, #0
 8001410:	4802      	ldr	r0, [pc, #8]	; (800141c <ld1_on+0x14>)
 8001412:	f7ff ff75 	bl	8001300 <Set_GPIO_BSRR>
}
 8001416:	bf00      	nop
 8001418:	bd80      	pop	{r7, pc}
 800141a:	bf00      	nop
 800141c:	58020400 	.word	0x58020400

08001420 <ld2_on>:
void ld2_on(void)
{
 8001420:	b580      	push	{r7, lr}
 8001422:	af00      	add	r7, sp, #0
	Set_GPIO_BSRR(GPIOE, 1, false);
 8001424:	2200      	movs	r2, #0
 8001426:	2101      	movs	r1, #1
 8001428:	4802      	ldr	r0, [pc, #8]	; (8001434 <ld2_on+0x14>)
 800142a:	f7ff ff69 	bl	8001300 <Set_GPIO_BSRR>
}
 800142e:	bf00      	nop
 8001430:	bd80      	pop	{r7, pc}
 8001432:	bf00      	nop
 8001434:	58021000 	.word	0x58021000

08001438 <ld3_on>:

void ld3_on(void)
{
 8001438:	b580      	push	{r7, lr}
 800143a:	af00      	add	r7, sp, #0
	Set_GPIO_BSRR(GPIOB, 14, false);
 800143c:	2200      	movs	r2, #0
 800143e:	210e      	movs	r1, #14
 8001440:	4802      	ldr	r0, [pc, #8]	; (800144c <ld3_on+0x14>)
 8001442:	f7ff ff5d 	bl	8001300 <Set_GPIO_BSRR>
}
 8001446:	bf00      	nop
 8001448:	bd80      	pop	{r7, pc}
 800144a:	bf00      	nop
 800144c:	58020400 	.word	0x58020400

08001450 <ld1_off>:
void ld1_off(void)
{
 8001450:	b580      	push	{r7, lr}
 8001452:	af00      	add	r7, sp, #0
	Set_GPIO_BSRR(GPIOB, 0, true);
 8001454:	2201      	movs	r2, #1
 8001456:	2100      	movs	r1, #0
 8001458:	4802      	ldr	r0, [pc, #8]	; (8001464 <ld1_off+0x14>)
 800145a:	f7ff ff51 	bl	8001300 <Set_GPIO_BSRR>
}
 800145e:	bf00      	nop
 8001460:	bd80      	pop	{r7, pc}
 8001462:	bf00      	nop
 8001464:	58020400 	.word	0x58020400

08001468 <ld2_off>:
void ld2_off(void)
{
 8001468:	b580      	push	{r7, lr}
 800146a:	af00      	add	r7, sp, #0
	Set_GPIO_BSRR(GPIOE, 1, true);
 800146c:	2201      	movs	r2, #1
 800146e:	2101      	movs	r1, #1
 8001470:	4802      	ldr	r0, [pc, #8]	; (800147c <ld2_off+0x14>)
 8001472:	f7ff ff45 	bl	8001300 <Set_GPIO_BSRR>
}
 8001476:	bf00      	nop
 8001478:	bd80      	pop	{r7, pc}
 800147a:	bf00      	nop
 800147c:	58021000 	.word	0x58021000

08001480 <ld3_off>:

void ld3_off(void)
{
 8001480:	b580      	push	{r7, lr}
 8001482:	af00      	add	r7, sp, #0
	Set_GPIO_BSRR(GPIOB, 14, true);
 8001484:	2201      	movs	r2, #1
 8001486:	210e      	movs	r1, #14
 8001488:	4802      	ldr	r0, [pc, #8]	; (8001494 <ld3_off+0x14>)
 800148a:	f7ff ff39 	bl	8001300 <Set_GPIO_BSRR>
}
 800148e:	bf00      	nop
 8001490:	bd80      	pop	{r7, pc}
 8001492:	bf00      	nop
 8001494:	58020400 	.word	0x58020400

08001498 <main>:
#include "User_led.h"
#include "Systick.h"
#include "stm32h745xx.h"
#include "Clock.h"
int main(void)
{
 8001498:	b580      	push	{r7, lr}
 800149a:	af00      	add	r7, sp, #0
	SysClockConfig();
 800149c:	f7ff fd5a 	bl	8000f54 <SysClockConfig>
	ld1_init();
 80014a0:	f7ff ff88 	bl	80013b4 <ld1_init>
	ld2_init();
 80014a4:	f7ff ff94 	bl	80013d0 <ld2_init>
	ld3_init();
 80014a8:	f7ff ffa0 	bl	80013ec <ld3_init>

	while(1)
	{
		ld1_on();
 80014ac:	f7ff ffac 	bl	8001408 <ld1_on>
		systickDelayMs(100);
 80014b0:	2064      	movs	r0, #100	; 0x64
 80014b2:	f7ff ff4d 	bl	8001350 <systickDelayMs>
		ld1_off();
 80014b6:	f7ff ffcb 	bl	8001450 <ld1_off>
		ld2_on();
 80014ba:	f7ff ffb1 	bl	8001420 <ld2_on>
		systickDelayMs(100);
 80014be:	2064      	movs	r0, #100	; 0x64
 80014c0:	f7ff ff46 	bl	8001350 <systickDelayMs>
		ld2_off();
 80014c4:	f7ff ffd0 	bl	8001468 <ld2_off>
		ld3_on();
 80014c8:	f7ff ffb6 	bl	8001438 <ld3_on>
		systickDelayMs(100);
 80014cc:	2064      	movs	r0, #100	; 0x64
 80014ce:	f7ff ff3f 	bl	8001350 <systickDelayMs>
		ld3_off();
 80014d2:	f7ff ffd5 	bl	8001480 <ld3_off>
		ld1_on();
 80014d6:	e7e9      	b.n	80014ac <main+0x14>

080014d8 <Reset_Handler>:

  .section .text.Reset_Handler
  .weak Reset_Handler
  .type Reset_Handler, %function
Reset_Handler:
  ldr   r0, =_estack
 80014d8:	480d      	ldr	r0, [pc, #52]	; (8001510 <LoopForever+0x2>)
  mov   sp, r0          /* set stack pointer */
 80014da:	4685      	mov	sp, r0
/* Call the clock system intitialization function.*/
  bl  SystemInit
 80014dc:	f3af 8000 	nop.w

/* Copy the data segment initializers from flash to SRAM */
  ldr r0, =_sdata
 80014e0:	480c      	ldr	r0, [pc, #48]	; (8001514 <LoopForever+0x6>)
  ldr r1, =_edata
 80014e2:	490d      	ldr	r1, [pc, #52]	; (8001518 <LoopForever+0xa>)
  ldr r2, =_sidata
 80014e4:	4a0d      	ldr	r2, [pc, #52]	; (800151c <LoopForever+0xe>)
  movs r3, #0
 80014e6:	2300      	movs	r3, #0
  b LoopCopyDataInit
 80014e8:	e002      	b.n	80014f0 <LoopCopyDataInit>

080014ea <CopyDataInit>:

CopyDataInit:
  ldr r4, [r2, r3]
 80014ea:	58d4      	ldr	r4, [r2, r3]
  str r4, [r0, r3]
 80014ec:	50c4      	str	r4, [r0, r3]
  adds r3, r3, #4
 80014ee:	3304      	adds	r3, #4

080014f0 <LoopCopyDataInit>:

LoopCopyDataInit:
  adds r4, r0, r3
 80014f0:	18c4      	adds	r4, r0, r3
  cmp r4, r1
 80014f2:	428c      	cmp	r4, r1
  bcc CopyDataInit
 80014f4:	d3f9      	bcc.n	80014ea <CopyDataInit>

/* Zero fill the bss segment. */
  ldr r2, =_sbss
 80014f6:	4a0a      	ldr	r2, [pc, #40]	; (8001520 <LoopForever+0x12>)
  ldr r4, =_ebss
 80014f8:	4c0a      	ldr	r4, [pc, #40]	; (8001524 <LoopForever+0x16>)
  movs r3, #0
 80014fa:	2300      	movs	r3, #0
  b LoopFillZerobss
 80014fc:	e001      	b.n	8001502 <LoopFillZerobss>

080014fe <FillZerobss>:

FillZerobss:
  str  r3, [r2]
 80014fe:	6013      	str	r3, [r2, #0]
  adds r2, r2, #4
 8001500:	3204      	adds	r2, #4

08001502 <LoopFillZerobss>:

LoopFillZerobss:
  cmp r2, r4
 8001502:	42a2      	cmp	r2, r4
  bcc FillZerobss
 8001504:	d3fb      	bcc.n	80014fe <FillZerobss>

/* Call static constructors */
  bl __libc_init_array
 8001506:	f000 f811 	bl	800152c <__libc_init_array>
/* Call the application's entry point.*/
  bl main
 800150a:	f7ff ffc5 	bl	8001498 <main>

0800150e <LoopForever>:

LoopForever:
    b LoopForever
 800150e:	e7fe      	b.n	800150e <LoopForever>
  ldr   r0, =_estack
 8001510:	24080000 	.word	0x24080000
  ldr r0, =_sdata
 8001514:	24000000 	.word	0x24000000
  ldr r1, =_edata
 8001518:	24000000 	.word	0x24000000
  ldr r2, =_sidata
 800151c:	08001594 	.word	0x08001594
  ldr r2, =_sbss
 8001520:	24000000 	.word	0x24000000
  ldr r4, =_ebss
 8001524:	2400001c 	.word	0x2400001c

08001528 <ADC1_2_IRQHandler>:
 * @retval : None
*/
  .section .text.Default_Handler,"ax",%progbits
Default_Handler:
Infinite_Loop:
  b Infinite_Loop
 8001528:	e7fe      	b.n	8001528 <ADC1_2_IRQHandler>
	...

0800152c <__libc_init_array>:
 800152c:	b570      	push	{r4, r5, r6, lr}
 800152e:	4d0d      	ldr	r5, [pc, #52]	; (8001564 <__libc_init_array+0x38>)
 8001530:	4c0d      	ldr	r4, [pc, #52]	; (8001568 <__libc_init_array+0x3c>)
 8001532:	1b64      	subs	r4, r4, r5
 8001534:	10a4      	asrs	r4, r4, #2
 8001536:	2600      	movs	r6, #0
 8001538:	42a6      	cmp	r6, r4
 800153a:	d109      	bne.n	8001550 <__libc_init_array+0x24>
 800153c:	4d0b      	ldr	r5, [pc, #44]	; (800156c <__libc_init_array+0x40>)
 800153e:	4c0c      	ldr	r4, [pc, #48]	; (8001570 <__libc_init_array+0x44>)
 8001540:	f000 f818 	bl	8001574 <_init>
 8001544:	1b64      	subs	r4, r4, r5
 8001546:	10a4      	asrs	r4, r4, #2
 8001548:	2600      	movs	r6, #0
 800154a:	42a6      	cmp	r6, r4
 800154c:	d105      	bne.n	800155a <__libc_init_array+0x2e>
 800154e:	bd70      	pop	{r4, r5, r6, pc}
 8001550:	f855 3b04 	ldr.w	r3, [r5], #4
 8001554:	4798      	blx	r3
 8001556:	3601      	adds	r6, #1
 8001558:	e7ee      	b.n	8001538 <__libc_init_array+0xc>
 800155a:	f855 3b04 	ldr.w	r3, [r5], #4
 800155e:	4798      	blx	r3
 8001560:	3601      	adds	r6, #1
 8001562:	e7f2      	b.n	800154a <__libc_init_array+0x1e>
 8001564:	0800158c 	.word	0x0800158c
 8001568:	0800158c 	.word	0x0800158c
 800156c:	0800158c 	.word	0x0800158c
 8001570:	08001590 	.word	0x08001590

08001574 <_init>:
 8001574:	b5f8      	push	{r3, r4, r5, r6, r7, lr}
 8001576:	bf00      	nop
 8001578:	bcf8      	pop	{r3, r4, r5, r6, r7}
 800157a:	bc08      	pop	{r3}
 800157c:	469e      	mov	lr, r3
 800157e:	4770      	bx	lr

08001580 <_fini>:
 8001580:	b5f8      	push	{r3, r4, r5, r6, r7, lr}
 8001582:	bf00      	nop
 8001584:	bcf8      	pop	{r3, r4, r5, r6, r7}
 8001586:	bc08      	pop	{r3}
 8001588:	469e      	mov	lr, r3
 800158a:	4770      	bx	lr
